libangelscript.so.2.35.1:_Z14CastToEnumTypeP11asCTypeInfo
libangelscript.so.2.35.1:_Z14CreateDelegateP17asCScriptFunctionPv
libangelscript.so.2.35.1:_Z16CastToObjectTypeP11asCTypeInfo
libangelscript.so.2.35.1:_Z16asCompareStringsPKcmS0_m
libangelscript.so.2.35.1:_Z17CastToFuncdefTypeP11asCTypeInfo
libangelscript.so.2.35.1:_Z17CastToTypedefTypeP11asCTypeInfo
libangelscript.so.2.35.1:_Z18CallSystemFunctioniP10asCContext
libangelscript.so.2.35.1:_Z18asPopActiveContextP18asCThreadLocalDataP16asIScriptContext
libangelscript.so.2.35.1:_Z18asStringDecodeUTF8PKcPj
libangelscript.so.2.35.1:_Z18asStringEncodeUTF8jPc
libangelscript.so.2.35.1:_Z18asStringScanDoublePKcPm
libangelscript.so.2.35.1:_Z18asStringScanUInt64PKciPmPb
libangelscript.so.2.35.1:_Z19ScriptObjectFactoryPK13asCObjectTypeP15asCScriptEngine
libangelscript.so.2.35.1:_Z19asPushActiveContextP16asIScriptContext
libangelscript.so.2.35.1:_Z19asStringEncodeUTF16jPc
libangelscript.so.2.35.1:_Z20RegisterScriptObjectP15asCScriptEngine
libangelscript.so.2.35.1:_Z21PrepareSystemFunctionP17asCScriptFunctionP26asSSystemFunctionInterfaceP15asCScriptEngine
libangelscript.so.2.35.1:_Z22RegisterScriptFunctionP15asCScriptEngine
libangelscript.so.2.35.1:_Z22ScriptObject_ConstructP13asCObjectTypeP15asCScriptObject
libangelscript.so.2.35.1:_Z23DetectCallingConventionbRK10asSFuncPtriPvP26asSSystemFunctionInterface
libangelscript.so.2.35.1:_Z23ScriptObjectCopyFactoryPK13asCObjectTypePvP15asCScriptEngine
libangelscript.so.2.35.1:_Z23ScriptObject_AssignmentP15asCScriptObjectS0_
libangelscript.so.2.35.1:_Z24CallSystemFunctionNativeP10asCContextP17asCScriptFunctionPvPjS3_RmS3_
libangelscript.so.2.35.1:_Z28PrepareSystemFunctionGenericP17asCScriptFunctionP26asSSystemFunctionInterfaceP15asCScriptEngine
libangelscript.so.2.35.1:_Z33ScriptObject_ConstructUnitializedP13asCObjectTypeP15asCScriptObject
libangelscript.so.2.35.1:_Z7as_powiiiRb
libangelscript.so.2.35.1:_Z7as_powujjRb
libangelscript.so.2.35.1:_Z9as_powi64llRb
libangelscript.so.2.35.1:_Z9as_powu64mmRb
libangelscript.so.2.35.1:_ZN10asCBuilder10GetFuncDefEPKcP12asSNameSpaceP13asCObjectType
libangelscript.so.2.35.1:_ZN10asCBuilder10WriteErrorERK9asCStringP13asCScriptCodeP13asCScriptNode
libangelscript.so.2.35.1:_ZN10asCBuilder10WriteErrorERK9asCStringS2_ii
libangelscript.so.2.35.1:_ZN10asCBuilder12GetEnumValueEPKcR11asCDataTypeRjP12asSNameSpace
libangelscript.so.2.35.1:_ZN10asCBuilder12ParseScriptsEv
libangelscript.so.2.35.1:_ZN10asCBuilder12RegisterEnumEP13asCScriptNodeP13asCScriptCodeP12asSNameSpace
libangelscript.so.2.35.1:_ZN10asCBuilder12WriteWarningERK9asCStringP13asCScriptCodeP13asCScriptNode
libangelscript.so.2.35.1:_ZN10asCBuilder12WriteWarningERK9asCStringS2_ii
libangelscript.so.2.35.1:_ZN10asCBuilder13DoesTypeExistERK9asCString
libangelscript.so.2.35.1:_ZN10asCBuilder13FindOrAddCodeEPKcS1_m
libangelscript.so.2.35.1:_ZN10asCBuilder13GetMixinClassEPKcP12asSNameSpace
libangelscript.so.2.35.1:_ZN10asCBuilder13GetObjectTypeEPKcP12asSNameSpace
libangelscript.so.2.35.1:_ZN10asCBuilder13ParseDataTypeEPKcP11asCDataTypeP12asSNameSpaceb
libangelscript.so.2.35.1:_ZN10asCBuilder13RegisterClassEP13asCScriptNodeP13asCScriptCodeP12asSNameSpace
libangelscript.so.2.35.1:_ZN10asCBuilder14CompileClassesEj
libangelscript.so.2.35.1:_ZN10asCBuilder14RegisterLambdaEP13asCScriptNodeP13asCScriptCodeP17asCScriptFunctionRK9asCStringP12asSNameSpaceb
libangelscript.so.2.35.1:_ZN10asCBuilder14VerifyPropertyEP11asCDataTypePKcR9asCStringRS0_P12asSNameSpace
libangelscript.so.2.35.1:_ZN10asCBuilder15CompileFunctionEPKcS1_ijPP17asCScriptFunction
libangelscript.so.2.35.1:_ZN10asCBuilder15CompleteFuncDefEP8sFuncDef
libangelscript.so.2.35.1:_ZN10asCBuilder15DoesMethodExistEP13asCObjectTypeiPj
libangelscript.so.2.35.1:_ZN10asCBuilder15RegisterFuncDefEP13asCScriptNodeP13asCScriptCodeP12asSNameSpaceP13asCObjectType
libangelscript.so.2.35.1:_ZN10asCBuilder15RegisterTypedefEP13asCScriptNodeP13asCScriptCodeP12asSNameSpace
libangelscript.so.2.35.1:_ZN10asCBuilder16CompileFunctionsEv
libangelscript.so.2.35.1:_ZN10asCBuilder16CompileGlobalVarEPKcS1_i
libangelscript.so.2.35.1:_ZN10asCBuilder16GetScopeFromNodeEP13asCScriptNodeP13asCScriptCodePS1_
libangelscript.so.2.35.1:_ZN10asCBuilder17CheckNameConflictEPKcP13asCScriptNodeP13asCScriptCodeP12asSNameSpacebb
libangelscript.so.2.35.1:_ZN10asCBuilder17CleanupEnumValuesEv
libangelscript.so.2.35.1:_ZN10asCBuilder17CompileInterfacesEv
libangelscript.so.2.35.1:_ZN10asCBuilder17GetGlobalPropertyEPKcP12asSNameSpacePbS4_PmS4_
libangelscript.so.2.35.1:_ZN10asCBuilder17GetObjectPropertyER11asCDataTypePKc
libangelscript.so.2.35.1:_ZN10asCBuilder17ParseTemplateDeclEPKcP9asCStringR8asCArrayIS2_E
libangelscript.so.2.35.1:_ZN10asCBuilder17RegisterGlobalVarEP13asCScriptNodeP13asCScriptCodeP12asSNameSpace
libangelscript.so.2.35.1:_ZN10asCBuilder17RegisterInterfaceEP13asCScriptNodeP13asCScriptCodeP12asSNameSpace
libangelscript.so.2.35.1:_ZN10asCBuilder18AddPropertyToClassEP17sClassDeclarationRK9asCStringRK11asCDataTypebbbP13asCScriptCodeP13asCScriptNode
libangelscript.so.2.35.1:_ZN10asCBuilder18RegisterMixinClassEP13asCScriptNodeP13asCScriptCodeP12asSNameSpace
libangelscript.so.2.35.1:_ZN10asCBuilder19AddInterfaceToClassEP17sClassDeclarationP13asCScriptNodeP13asCObjectType
libangelscript.so.2.35.1:_ZN10asCBuilder19ValidateDefaultArgsEP13asCScriptCodeP13asCScriptNodeP17asCScriptFunction
libangelscript.so.2.35.1:_ZN10asCBuilder20GetEnumValueFromTypeEP11asCEnumTypePKcR11asCDataTypeRj
libangelscript.so.2.35.1:_ZN10asCBuilder20GetNameSpaceByStringERK9asCStringP12asSNameSpaceP13asCScriptNodeP13asCScriptCodePP11asCTypeInfob
libangelscript.so.2.35.1:_ZN10asCBuilder20GetNameSpaceFromNodeEP13asCScriptNodeP13asCScriptCodeP12asSNameSpacePS1_PP13asCObjectType
libangelscript.so.2.35.1:_ZN10asCBuilder21AddDefaultConstructorEP13asCObjectTypeP13asCScriptCode
libangelscript.so.2.35.1:_ZN10asCBuilder21CreateVirtualFunctionEP17asCScriptFunctioni
libangelscript.so.2.35.1:_ZN10asCBuilder22CompileGlobalVariablesEv
libangelscript.so.2.35.1:_ZN10asCBuilder22CreateDataTypeFromNodeEP13asCScriptNodeP13asCScriptCodeP12asSNameSpacebP13asCObjectTypebPb
libangelscript.so.2.35.1:_ZN10asCBuilder22DetermineTypeRelationsEv
libangelscript.so.2.35.1:_ZN10asCBuilder22GetFunctionDescriptionEi
libangelscript.so.2.35.1:_ZN10asCBuilder22ModifyDataTypeFromNodeERK11asCDataTypeP13asCScriptNodeP13asCScriptCodeP16asETypeModifiersPb
libangelscript.so.2.35.1:_ZN10asCBuilder22RegisterScriptFunctionEP13asCScriptNodeP13asCScriptCodeP13asCObjectTypebbP12asSNameSpacebbR9asCStringR11asCDataTypeR8asCArrayIS8_ERSC_ISA_ERSC_I16asETypeModifiersERSC_IPS8_E17asSFunctionTraits
libangelscript.so.2.35.1:_ZN10asCBuilder23CheckNameConflictMemberEP11asCTypeInfoPKcP13asCScriptNodeP13asCScriptCodebb
libangelscript.so.2.35.1:_ZN10asCBuilder23DoesGlobalPropertyExistEPKcP12asSNameSpacePP17asCGlobalPropertyPP26sGlobalVariableDescriptionPb
libangelscript.so.2.35.1:_ZN10asCBuilder23GetFunctionDescriptionsEPKcR8asCArrayIiEP12asSNameSpace
libangelscript.so.2.35.1:_ZN10asCBuilder23RegisterTypesFromScriptEP13asCScriptNodeP13asCScriptCodeP12asSNameSpace
libangelscript.so.2.35.1:_ZN10asCBuilder23RegisterVirtualPropertyEP13asCScriptNodeP13asCScriptCodeP13asCObjectTypebbP12asSNameSpaceb
libangelscript.so.2.35.1:_ZN10asCBuilder23ValidateVirtualPropertyEP17asCScriptFunction
libangelscript.so.2.35.1:_ZN10asCBuilder24GetCleanExpressionStringEP13asCScriptNodeP13asCScriptCode
libangelscript.so.2.35.1:_ZN10asCBuilder24GetParsedFunctionDetailsEP13asCScriptNodeP13asCScriptCodeP13asCObjectTypeR9asCStringR11asCDataTypeR8asCArrayIS6_ERSA_IS8_ERSA_I16asETypeModifiersERSA_IPS6_ER17asSFunctionTraitsP12asSNameSpace
libangelscript.so.2.35.1:_ZN10asCBuilder24IncludeMethodsFromMixinsEP17sClassDeclaration
libangelscript.so.2.35.1:_ZN10asCBuilder24ParseFunctionDeclarationEP13asCObjectTypePKcP17asCScriptFunctionbP8asCArrayIbEPbP12asSNameSpacePP13asCScriptNodePS1_
libangelscript.so.2.35.1:_ZN10asCBuilder24ParseVariableDeclarationEPKcP12asSNameSpaceR9asCStringRS3_R11asCDataType
libangelscript.so.2.35.1:_ZN10asCBuilder24RegisterImportedFunctionEiP13asCScriptNodeP13asCScriptCodeP12asSNameSpace
libangelscript.so.2.35.1:_ZN10asCBuilder25EvaluateTemplateInstancesEjb
libangelscript.so.2.35.1:_ZN10asCBuilder26RegisterNonTypesFromScriptEP13asCScriptNodeP13asCScriptCodeP12asSNameSpace
libangelscript.so.2.35.1:_ZN10asCBuilder27GetNamespaceAndNameFromNodeEP13asCScriptNodeP13asCScriptCodeP12asSNameSpaceRS5_R9asCString
libangelscript.so.2.35.1:_ZN10asCBuilder27GetObjectMethodDescriptionsEPKcP13asCObjectTypeR8asCArrayIiEbRK9asCStringP13asCScriptNodeP13asCScriptCode
libangelscript.so.2.35.1:_ZN10asCBuilder27GetTemplateInstanceFromNodeEP13asCScriptNodeP13asCScriptCodeP13asCObjectTypeP12asSNameSpaceS5_PS1_
libangelscript.so.2.35.1:_ZN10asCBuilder27IncludePropertiesFromMixinsEP17sClassDeclaration
libangelscript.so.2.35.1:_ZN10asCBuilder28AddInterfaceFromMixinToClassEP17sClassDeclarationP13asCScriptNodeP11sMixinClass
libangelscript.so.2.35.1:_ZN10asCBuilder29GetTypeFromTypesKnownByObjectEPKcP13asCObjectType
libangelscript.so.2.35.1:_ZN10asCBuilder30RegisterScriptFunctionFromNodeEP13asCScriptNodeP13asCScriptCodeP13asCObjectTypebbP12asSNameSpacebb
libangelscript.so.2.35.1:_ZN10asCBuilder33CheckForConflictsDueToDefaultArgsEP13asCScriptCodeP13asCScriptNodeP17asCScriptFunctionP13asCObjectType
libangelscript.so.2.35.1:_ZN10asCBuilder5BuildEv
libangelscript.so.2.35.1:_ZN10asCBuilder5ResetEv
libangelscript.so.2.35.1:_ZN10asCBuilder7AddCodeEPKcS1_iiib
libangelscript.so.2.35.1:_ZN10asCBuilder7GetTypeEPKcP12asSNameSpaceP13asCObjectType
libangelscript.so.2.35.1:_ZN10asCBuilder9WriteInfoERK9asCStringP13asCScriptCodeP13asCScriptNode
libangelscript.so.2.35.1:_ZN10asCBuilder9WriteInfoERK9asCStringS2_iib
libangelscript.so.2.35.1:_ZN10asCBuilderC1EP15asCScriptEngineP9asCModule
libangelscript.so.2.35.1:_ZN10asCBuilderC2EP15asCScriptEngineP9asCModule
libangelscript.so.2.35.1:_ZN10asCBuilderD1Ev
libangelscript.so.2.35.1:_ZN10asCBuilderD2Ev
libangelscript.so.2.35.1:_ZN10asCContext10CleanStackEb
libangelscript.so.2.35.1:_ZN10asCContext10GetVarNameEjj
libangelscript.so.2.35.1:_ZN10asCContext10SetArgByteEjh
libangelscript.so.2.35.1:_ZN10asCContext10SetArgWordEjt
libangelscript.so.2.35.1:_ZN10asCContext11CallGenericEP17asCScriptFunction
libangelscript.so.2.35.1:_ZN10asCContext11ExecuteNextEv
libangelscript.so.2.35.1:_ZN10asCContext11GetFunctionEj
libangelscript.so.2.35.1:_ZN10asCContext11GetVarCountEj
libangelscript.so.2.35.1:_ZN10asCContext11SetArgDWordEjj
libangelscript.so.2.35.1:_ZN10asCContext11SetArgFloatEjf
libangelscript.so.2.35.1:_ZN10asCContext11SetArgQWordEjm
libangelscript.so.2.35.1:_ZN10asCContext11SetUserDataEPvm
libangelscript.so.2.35.1:_ZN10asCContext12DetachEngineEv
libangelscript.so.2.35.1:_ZN10asCContext12GetVarTypeIdEjj
libangelscript.so.2.35.1:_ZN10asCContext12IsVarInScopeEjj
libangelscript.so.2.35.1:_ZN10asCContext12PopCallStateEv
libangelscript.so.2.35.1:_ZN10asCContext12SetArgDoubleEjd
libangelscript.so.2.35.1:_ZN10asCContext12SetArgObjectEjPv
libangelscript.so.2.35.1:_ZN10asCContext12SetExceptionEPKcb
libangelscript.so.2.35.1:_ZN10asCContext13GetLineNumberEjPiPPKc
libangelscript.so.2.35.1:_ZN10asCContext13GetReturnByteEv
libangelscript.so.2.35.1:_ZN10asCContext13GetReturnWordEv
libangelscript.so.2.35.1:_ZN10asCContext13GetThisTypeIdEj
libangelscript.so.2.35.1:_ZN10asCContext13PushCallStateEv
libangelscript.so.2.35.1:_ZN10asCContext13SetArgAddressEjPv
libangelscript.so.2.35.1:_ZN10asCContext13SetArgVarTypeEjPvi
libangelscript.so.2.35.1:_ZN10asCContext14GetReturnDWordEv
libangelscript.so.2.35.1:_ZN10asCContext14GetReturnFloatEv
libangelscript.so.2.35.1:_ZN10asCContext14GetReturnQWordEv
libangelscript.so.2.35.1:_ZN10asCContext14GetThisPointerEj
libangelscript.so.2.35.1:_ZN10asCContext15CleanStackFrameEb
libangelscript.so.2.35.1:_ZN10asCContext15GetAddressOfArgEj
libangelscript.so.2.35.1:_ZN10asCContext15GetAddressOfVarEjj
libangelscript.so.2.35.1:_ZN10asCContext15GetReturnDoubleEv
libangelscript.so.2.35.1:_ZN10asCContext15GetReturnObjectEv
libangelscript.so.2.35.1:_ZN10asCContext15SetLineCallbackE10asSFuncPtrPvi
libangelscript.so.2.35.1:_ZN10asCContext16CallLineCallbackEv
libangelscript.so.2.35.1:_ZN10asCContext16CleanArgsOnStackEv
libangelscript.so.2.35.1:_ZN10asCContext16GetReturnAddressEv
libangelscript.so.2.35.1:_ZN10asCContext17CleanReturnObjectEv
libangelscript.so.2.35.1:_ZN10asCContext17ClearLineCallbackEv
libangelscript.so.2.35.1:_ZN10asCContext17GetSystemFunctionEv
libangelscript.so.2.35.1:_ZN10asCContext17GetVarDeclarationEjjb
libangelscript.so.2.35.1:_ZN10asCContext17ReserveStackSpaceEj
libangelscript.so.2.35.1:_ZN10asCContext18CallScriptFunctionEP17asCScriptFunction
libangelscript.so.2.35.1:_ZN10asCContext18GetExceptionStringEv
libangelscript.so.2.35.1:_ZN10asCContext18HandleAppExceptionEv
libangelscript.so.2.35.1:_ZN10asCContext19CallInterfaceMethodEP17asCScriptFunction
libangelscript.so.2.35.1:_ZN10asCContext20DetermineLiveObjectsER8asCArrayIiEj
libangelscript.so.2.35.1:_ZN10asCContext20GetExceptionFunctionEv
libangelscript.so.2.35.1:_ZN10asCContext20SetExceptionCallbackE10asSFuncPtrPvi
libangelscript.so.2.35.1:_ZN10asCContext20SetInternalExceptionEPKcb
libangelscript.so.2.35.1:_ZN10asCContext21CallExceptionCallbackEv
libangelscript.so.2.35.1:_ZN10asCContext21FindExceptionTryCatchEv
libangelscript.so.2.35.1:_ZN10asCContext21PrepareScriptFunctionEv
libangelscript.so.2.35.1:_ZN10asCContext21WillExceptionBeCaughtEv
libangelscript.so.2.35.1:_ZN10asCContext22ClearExceptionCallbackEv
libangelscript.so.2.35.1:_ZN10asCContext22GetExceptionLineNumberEPiPPKc
libangelscript.so.2.35.1:_ZN10asCContext23GetAddressOfReturnValueEv
libangelscript.so.2.35.1:_ZN10asCContext5AbortEv
libangelscript.so.2.35.1:_ZN10asCContext7ExecuteEv
libangelscript.so.2.35.1:_ZN10asCContext7PrepareEP17asIScriptFunction
libangelscript.so.2.35.1:_ZN10asCContext7SuspendEv
libangelscript.so.2.35.1:_ZN10asCContext8PopStateEv
libangelscript.so.2.35.1:_ZN10asCContext9PushStateEv
libangelscript.so.2.35.1:_ZN10asCContext9SetObjectEPv
libangelscript.so.2.35.1:_ZN10asCContext9UnprepareEv
libangelscript.so.2.35.1:_ZN10asCContextC1EP15asCScriptEngineb
libangelscript.so.2.35.1:_ZN10asCContextC2EP15asCScriptEngineb
libangelscript.so.2.35.1:_ZN10asCContextD0Ev
libangelscript.so.2.35.1:_ZN10asCContextD1Ev
libangelscript.so.2.35.1:_ZN10asCContextD2Ev
libangelscript.so.2.35.1:_ZN10asCGeneric10GetArgByteEj
libangelscript.so.2.35.1:_ZN10asCGeneric10GetArgWordEj
libangelscript.so.2.35.1:_ZN10asCGeneric11GetArgDWordEj
libangelscript.so.2.35.1:_ZN10asCGeneric11GetArgFloatEj
libangelscript.so.2.35.1:_ZN10asCGeneric11GetArgQWordEj
libangelscript.so.2.35.1:_ZN10asCGeneric12GetArgDoubleEj
libangelscript.so.2.35.1:_ZN10asCGeneric12GetArgObjectEj
libangelscript.so.2.35.1:_ZN10asCGeneric13GetArgAddressEj
libangelscript.so.2.35.1:_ZN10asCGeneric13SetReturnByteEh
libangelscript.so.2.35.1:_ZN10asCGeneric13SetReturnWordEt
libangelscript.so.2.35.1:_ZN10asCGeneric14SetReturnDWordEj
libangelscript.so.2.35.1:_ZN10asCGeneric14SetReturnFloatEf
libangelscript.so.2.35.1:_ZN10asCGeneric14SetReturnQWordEm
libangelscript.so.2.35.1:_ZN10asCGeneric15GetAddressOfArgEj
libangelscript.so.2.35.1:_ZN10asCGeneric15SetReturnDoubleEd
libangelscript.so.2.35.1:_ZN10asCGeneric15SetReturnObjectEPv
libangelscript.so.2.35.1:_ZN10asCGeneric16GetReturnPointerEv
libangelscript.so.2.35.1:_ZN10asCGeneric16SetReturnAddressEPv
libangelscript.so.2.35.1:_ZN10asCGeneric26GetAddressOfReturnLocationEv
libangelscript.so.2.35.1:_ZN10asCGeneric9GetObjectEv
libangelscript.so.2.35.1:_ZN10asCGenericC1EP15asCScriptEngineP17asCScriptFunctionPvPj
libangelscript.so.2.35.1:_ZN10asCGenericC2EP15asCScriptEngineP17asCScriptFunctionPvPj
libangelscript.so.2.35.1:_ZN10asCGenericD0Ev
libangelscript.so.2.35.1:_ZN10asCGenericD1Ev
libangelscript.so.2.35.1:_ZN10asCGenericD2Ev
libangelscript.so.2.35.1:_ZN11asCByteCode10InstrDWORDE10asEBCInstrj
libangelscript.so.2.35.1:_ZN11asCByteCode10InstrFLOATE10asEBCInstrf
libangelscript.so.2.35.1:_ZN11asCByteCode10InstrQWORDE10asEBCInstrm
libangelscript.so.2.35.1:_ZN11asCByteCode10InstrSHORTE10asEBCInstrs
libangelscript.so.2.35.1:_ZN11asCByteCode10InstrW_PTRE10asEBCInstrsPv
libangelscript.so.2.35.1:_ZN11asCByteCode10InstrW_W_WE10asEBCInstriii
libangelscript.so.2.35.1:_ZN11asCByteCode11ExchangeVarEii
libangelscript.so.2.35.1:_ZN11asCByteCode11GetVarsUsedER8asCArrayIiE
libangelscript.so.2.35.1:_ZN11asCByteCode11InstrDOUBLEE10asEBCInstrd
libangelscript.so.2.35.1:_ZN11asCByteCode11IsTemporaryEi
libangelscript.so.2.35.1:_ZN11asCByteCode11PostProcessEv
libangelscript.so.2.35.1:_ZN11asCByteCode12CanBeSwappedEP18asCByteInstruction
libangelscript.so.2.35.1:_ZN11asCByteCode12GetLastInstrEv
libangelscript.so.2.35.1:_ZN11asCByteCode12InsertBeforeEP18asCByteInstructionS1_
libangelscript.so.2.35.1:_ZN11asCByteCode12InstrSHORT_BE10asEBCInstrsh
libangelscript.so.2.35.1:_ZN11asCByteCode12InstrSHORT_WE10asEBCInstrst
libangelscript.so.2.35.1:_ZN11asCByteCode12InstrW_FLOATE10asEBCInstrtf
libangelscript.so.2.35.1:_ZN11asCByteCode13InstrSHORT_DWE10asEBCInstrsj
libangelscript.so.2.35.1:_ZN11asCByteCode13InstrSHORT_QWE10asEBCInstrsm
libangelscript.so.2.35.1:_ZN11asCByteCode13IsTempRegUsedEP18asCByteInstruction
libangelscript.so.2.35.1:_ZN11asCByteCode13IsTempVarReadEP18asCByteInstructioni
libangelscript.so.2.35.1:_ZN11asCByteCode14AddInstructionEv
libangelscript.so.2.35.1:_ZN11asCByteCode15OptimizeLocallyERK8asCArrayIiE
libangelscript.so.2.35.1:_ZN11asCByteCode15RemoveLastInstrEv
libangelscript.so.2.35.1:_ZN11asCByteCode16InstrSHORT_DW_DWE10asEBCInstrsjj
libangelscript.so.2.35.1:_ZN11asCByteCode17DeleteInstructionEP18asCByteInstruction
libangelscript.so.2.35.1:_ZN11asCByteCode17InsertIfNotExistsER8asCArrayIiEi
libangelscript.so.2.35.1:_ZN11asCByteCode17IsInstrJmpOrLabelEP18asCByteInstruction
libangelscript.so.2.35.1:_ZN11asCByteCode17RemoveInstructionEP18asCByteInstruction
libangelscript.so.2.35.1:_ZN11asCByteCode17RemoveUnusedValueEP18asCByteInstructionPS1_
libangelscript.so.2.35.1:_ZN11asCByteCode18ExtractLineNumbersEv
libangelscript.so.2.35.1:_ZN11asCByteCode18IsSimpleExpressionEv
libangelscript.so.2.35.1:_ZN11asCByteCode18PostponeInitOfTempEP18asCByteInstructionPS1_
libangelscript.so.2.35.1:_ZN11asCByteCode19AddInstructionFirstEv
libangelscript.so.2.35.1:_ZN11asCByteCode19ExtractTryCatchInfoEP17asCScriptFunction
libangelscript.so.2.35.1:_ZN11asCByteCode19GetLastInstrValueDWEv
libangelscript.so.2.35.1:_ZN11asCByteCode20IsTempVarReadByInstrEP18asCByteInstructioni
libangelscript.so.2.35.1:_ZN11asCByteCode20ResolveJumpAddressesEv
libangelscript.so.2.35.1:_ZN11asCByteCode21ChangeFirstDeleteNextEP18asCByteInstruction10asEBCInstr
libangelscript.so.2.35.1:_ZN11asCByteCode21DeleteFirstChangeNextEP18asCByteInstruction10asEBCInstr
libangelscript.so.2.35.1:_ZN11asCByteCode21InsertFirstInstrDWORDE10asEBCInstrj
libangelscript.so.2.35.1:_ZN11asCByteCode21InsertFirstInstrQWORDE10asEBCInstrm
libangelscript.so.2.35.1:_ZN11asCByteCode25ExtractObjectVariableInfoEP17asCScriptFunction
libangelscript.so.2.35.1:_ZN11asCByteCode27IsTempVarOverwrittenByInstrEP18asCByteInstructioni
libangelscript.so.2.35.1:_ZN11asCByteCode3RetEi
libangelscript.so.2.35.1:_ZN11asCByteCode4CallE10asEBCInstrii
libangelscript.so.2.35.1:_ZN11asCByteCode4JmpPEij
libangelscript.so.2.35.1:_ZN11asCByteCode4LineEiii
libangelscript.so.2.35.1:_ZN11asCByteCode5AllocE10asEBCInstrPvii
libangelscript.so.2.35.1:_ZN11asCByteCode5BlockEb
libangelscript.so.2.35.1:_ZN11asCByteCode5InstrE10asEBCInstr
libangelscript.so.2.35.1:_ZN11asCByteCode5LabelEs
libangelscript.so.2.35.1:_ZN11asCByteCode6GoBackEP18asCByteInstruction
libangelscript.so.2.35.1:_ZN11asCByteCode6OutputEPj
libangelscript.so.2.35.1:_ZN11asCByteCode7AddCodeEPS_
libangelscript.so.2.35.1:_ZN11asCByteCode7AddPathER8asCArrayIP18asCByteInstructionES2_i
libangelscript.so.2.35.1:_ZN11asCByteCode7CallPtrE10asEBCInstrii
libangelscript.so.2.35.1:_ZN11asCByteCode7GetSizeEv
libangelscript.so.2.35.1:_ZN11asCByteCode7ObjInfoEii
libangelscript.so.2.35.1:_ZN11asCByteCode7VarDeclEi
libangelscript.so.2.35.1:_ZN11asCByteCode8ClearAllEv
libangelscript.so.2.35.1:_ZN11asCByteCode8FinalizeERK8asCArrayIiE
libangelscript.so.2.35.1:_ZN11asCByteCode8InstrINTE10asEBCInstri
libangelscript.so.2.35.1:_ZN11asCByteCode8InstrPTRE10asEBCInstrPv
libangelscript.so.2.35.1:_ZN11asCByteCode8InstrW_WE10asEBCInstrii
libangelscript.so.2.35.1:_ZN11asCByteCode8OptimizeEv
libangelscript.so.2.35.1:_ZN11asCByteCode8TryBlockEs
libangelscript.so.2.35.1:_ZN11asCByteCode9FindLabelEiP18asCByteInstructionPS1_Pi
libangelscript.so.2.35.1:_ZN11asCByteCode9GoForwardEP18asCByteInstruction
libangelscript.so.2.35.1:_ZN11asCByteCode9InstrWORDE10asEBCInstrt
libangelscript.so.2.35.1:_ZN11asCByteCode9InstrW_DWE10asEBCInstrtj
libangelscript.so.2.35.1:_ZN11asCByteCode9InstrW_QWE10asEBCInstrtm
libangelscript.so.2.35.1:_ZN11asCByteCode9IsVarUsedEi
libangelscript.so.2.35.1:_ZN11asCByteCodeC1EP15asCScriptEngine
libangelscript.so.2.35.1:_ZN11asCByteCodeC2EP15asCScriptEngine
libangelscript.so.2.35.1:_ZN11asCByteCodeD1Ev
libangelscript.so.2.35.1:_ZN11asCByteCodeD2Ev
libangelscript.so.2.35.1:_ZN11asCCompiler11CompileCaseEP13asCScriptNodeP11asCByteCode
libangelscript.so.2.35.1:_ZN11asCCompiler11DereferenceEP14asCExprContextb
libangelscript.so.2.35.1:_ZN11asCCompiler11FilterConstER8asCArrayIiEb
libangelscript.so.2.35.1:_ZN11asCCompiler11InformationERK9asCStringP13asCScriptNode
libangelscript.so.2.35.1:_ZN11asCCompiler12DoAssignmentEP14asCExprContextS1_S1_P13asCScriptNodeS3_10eTokenTypeS3_
libangelscript.so.2.35.1:_ZN11asCCompiler12SymbolLookupERK9asCStringS2_P13asCObjectTypeP14asCExprContext
libangelscript.so.2.35.1:_ZN11asCCompiler13GetPrecedenceEP13asCScriptNode
libangelscript.so.2.35.1:_ZN11asCCompiler13MatchArgumentEP17asCScriptFunctionPK14asCExprContextib
libangelscript.so.2.35.1:_ZN11asCCompiler13MatchArgumentER8asCArrayIiERS0_I20asSOverloadCandidateEPK14asCExprContextib
libangelscript.so.2.35.1:_ZN11asCCompiler14CallDestructorER11asCDataTypeibP11asCByteCode
libangelscript.so.2.35.1:_ZN11asCCompiler14CompileFactoryEP10asCBuilderP13asCScriptCodeP17asCScriptFunction
libangelscript.so.2.35.1:_ZN11asCCompiler14CompileRefCastEP14asCExprContextRK11asCDataTypebP13asCScriptNodeb
libangelscript.so.2.35.1:_ZN11asCCompiler14MatchFunctionsER8asCArrayIiERS0_IP14asCExprContextEP13asCScriptNodePKcPS0_I16asSNamedArgumentEP13asCObjectTypebbbRK9asCString
libangelscript.so.2.35.1:_ZN11asCCompiler14PrepareOperandEP14asCExprContextP13asCScriptNode
libangelscript.so.2.35.1:_ZN11asCCompiler15CompileAutoTypeER11asCDataTypeR14asCExprContextP13asCScriptNodeS5_
libangelscript.so.2.35.1:_ZN11asCCompiler15CompileFunctionEP10asCBuilderP13asCScriptCodeR8asCArrayI9asCStringEP13asCScriptNodeP17asCScriptFunctionP17sClassDeclaration
libangelscript.so.2.35.1:_ZN11asCCompiler15CompileInitListEP12asCExprValueP13asCScriptNodeP11asCByteCodei
libangelscript.so.2.35.1:_ZN11asCCompiler15CompileOperatorEP13asCScriptNodeP14asCExprContextS3_S3_10eTokenTypeb
libangelscript.so.2.35.1:_ZN11asCCompiler15CompileTryCatchEP13asCScriptNodePbP11asCByteCode
libangelscript.so.2.35.1:_ZN11asCCompiler15GetVariableSlotEi
libangelscript.so.2.35.1:_ZN11asCCompiler15MoveArgsToStackEiP11asCByteCodeR8asCArrayIP14asCExprContextEb
libangelscript.so.2.35.1:_ZN11asCCompiler15PrepareArgumentEP11asCDataTypeP14asCExprContextP13asCScriptNodebib
libangelscript.so.2.35.1:_ZN11asCCompiler16AddVariableScopeEbb
libangelscript.so.2.35.1:_ZN11asCCompiler16AllocateVariableERK11asCDataTypebbb
libangelscript.so.2.35.1:_ZN11asCCompiler16CompileConditionEP13asCScriptNodeP14asCExprContext
libangelscript.so.2.35.1:_ZN11asCCompiler16CompileStatementEP13asCScriptNodePbP11asCByteCode
libangelscript.so.2.35.1:_ZN11asCCompiler16ConvertToPostFixEP13asCScriptNodeR8asCArrayIS1_E
libangelscript.so.2.35.1:_ZN11asCCompiler16DestroyVariablesEP11asCByteCode
libangelscript.so.2.35.1:_ZN11asCCompiler16FinalizeFunctionEv
libangelscript.so.2.35.1:_ZN11asCCompiler16IsVariableOnHeapEi
libangelscript.so.2.35.1:_ZN11asCCompiler16MakeFunctionCallEP14asCExprContextiP13asCObjectTypeR8asCArrayIS1_EP13asCScriptNodebii
libangelscript.so.2.35.1:_ZN11asCCompiler16PrepareArgument2EP14asCExprContextS1_P11asCDataTypebib
libangelscript.so.2.35.1:_ZN11asCCompiler17AfterFunctionCallEiR8asCArrayIP14asCExprContextES2_b
libangelscript.so.2.35.1:_ZN11asCCompiler17CompileAssignmentEP13asCScriptNodeP14asCExprContext
libangelscript.so.2.35.1:_ZN11asCCompiler17CompileConversionEP13asCScriptNodeP14asCExprContext
libangelscript.so.2.35.1:_ZN11asCCompiler17CompileExpressionEP13asCScriptNodeP14asCExprContext
libangelscript.so.2.35.1:_ZN11asCCompiler17CompileInitAsCopyER11asCDataTypeiP11asCByteCodeP14asCExprContextP13asCScriptNodeb
libangelscript.so.2.35.1:_ZN11asCCompiler17ConvertToVariableEP14asCExprContext
libangelscript.so.2.35.1:_ZN11asCCompiler17GetVariableOffsetEi
libangelscript.so.2.35.1:_ZN11asCCompiler17MergeExprBytecodeEP14asCExprContextS1_
libangelscript.so.2.35.1:_ZN11asCCompiler17PerformAssignmentEP12asCExprValueS1_P11asCByteCodeP13asCScriptNode
libangelscript.so.2.35.1:_ZN11asCCompiler18CompileDeclarationEP13asCScriptNodeP11asCByteCode
libangelscript.so.2.35.1:_ZN11asCCompiler18CompileIfStatementEP13asCScriptNodePbP11asCByteCode
libangelscript.so.2.35.1:_ZN11asCCompiler18ConvertToReferenceEP14asCExprContext
libangelscript.so.2.35.1:_ZN11asCCompiler18DeallocateVariableEi
libangelscript.so.2.35.1:_ZN11asCCompiler18DetermineNameSpaceERK9asCString
libangelscript.so.2.35.1:_ZN11asCCompiler18ImplicitConversionEP14asCExprContextRK11asCDataTypeP13asCScriptNode13EImplicitConvbb
libangelscript.so.2.35.1:_ZN11asCCompiler18PrintMatchingFuncsER8asCArrayIiEP13asCScriptNodeP13asCObjectType
libangelscript.so.2.35.1:_ZN11asCCompiler18SymbolLookupMemberERK9asCStringP13asCObjectTypeP14asCExprContext
libangelscript.so.2.35.1:_ZN11asCCompiler19CallCopyConstructorER11asCDataTypeibP11asCByteCodeP14asCExprContextP13asCScriptNodebb
libangelscript.so.2.35.1:_ZN11asCCompiler19CompileArgumentListEP13asCScriptNodeR8asCArrayIP14asCExprContextERS2_I16asSNamedArgumentE
libangelscript.so.2.35.1:_ZN11asCCompiler19CompileForStatementEP13asCScriptNodeP11asCByteCode
libangelscript.so.2.35.1:_ZN11asCCompiler19CompileFunctionCallEP13asCScriptNodeP14asCExprContextP13asCObjectTypebRK9asCString
libangelscript.so.2.35.1:_ZN11asCCompiler19CompileMathOperatorEP13asCScriptNodeP14asCExprContextS3_S3_10eTokenType
libangelscript.so.2.35.1:_ZN11asCCompiler19DetermineSingleFuncEP14asCExprContextP13asCScriptNode
libangelscript.so.2.35.1:_ZN11asCCompiler19PerformFunctionCallEiP14asCExprContextbP8asCArrayIS1_EP13asCObjectTypebii
libangelscript.so.2.35.1:_ZN11asCCompiler19PrepareFunctionCallEiP11asCByteCodeR8asCArrayIP14asCExprContextE
libangelscript.so.2.35.1:_ZN11asCCompiler19PushVariableOnStackEP14asCExprContextb
libangelscript.so.2.35.1:_ZN11asCCompiler19RemoveVariableScopeEv
libangelscript.so.2.35.1:_ZN11asCCompiler20CompileConstructCallEP13asCScriptNodeP14asCExprContext
libangelscript.so.2.35.1:_ZN11asCCompiler20FindPropertyAccessorERK9asCStringP14asCExprContextP13asCScriptNodeP12asSNameSpaceb
libangelscript.so.2.35.1:_ZN11asCCompiler20FindPropertyAccessorERK9asCStringP14asCExprContextS4_P13asCScriptNodeP12asSNameSpaceb
libangelscript.so.2.35.1:_ZN11asCCompiler20PrepareForAssignmentEP11asCDataTypeP14asCExprContextP13asCScriptNodebS3_
libangelscript.so.2.35.1:_ZN11asCCompiler20SymbolLookupLocalVarERK9asCStringP14asCExprContext
libangelscript.so.2.35.1:_ZN11asCCompiler21AllocateVariableNotInERK11asCDataTypebbP14asCExprContext
libangelscript.so.2.35.1:_ZN11asCCompiler21CompileBreakStatementEP13asCScriptNodeP11asCByteCode
libangelscript.so.2.35.1:_ZN11asCCompiler21CompileExpressionTermEP13asCScriptNodeP14asCExprContext
libangelscript.so.2.35.1:_ZN11asCCompiler21CompileGlobalVariableEP10asCBuilderP13asCScriptCodeP13asCScriptNodeP26sGlobalVariableDescriptionP17asCScriptFunction
libangelscript.so.2.35.1:_ZN11asCCompiler21CompileInitializationEP13asCScriptNodeP11asCByteCodeRK11asCDataTypeS1_iPmiP14asCExprContext
libangelscript.so.2.35.1:_ZN11asCCompiler21CompileStatementBlockEP13asCScriptNodebPbP11asCByteCode
libangelscript.so.2.35.1:_ZN11asCCompiler21CompileVariableAccessERK9asCStringS2_P14asCExprContextP13asCScriptNodebP13asCObjectType
libangelscript.so.2.35.1:_ZN11asCCompiler21CompileWhileStatementEP13asCScriptNodeP11asCByteCode
libangelscript.so.2.35.1:_ZN11asCCompiler21ConvertToTempVariableEP14asCExprContext
libangelscript.so.2.35.1:_ZN11asCCompiler21ImplicitConvObjectRefEP14asCExprContextRK11asCDataTypeP13asCScriptNode13EImplicitConvb
libangelscript.so.2.35.1:_ZN11asCCompiler21IsVariableInitializedEP12asCExprValueP13asCScriptNode
libangelscript.so.2.35.1:_ZN11asCCompiler21ProcessDeferredParamsEP14asCExprContext
libangelscript.so.2.35.1:_ZN11asCCompiler21ProcessStringConstantER9asCStringP13asCScriptNodeb
libangelscript.so.2.35.1:_ZN11asCCompiler22CallDefaultConstructorERK11asCDataTypeibP11asCByteCodeP13asCScriptNodeib
libangelscript.so.2.35.1:_ZN11asCCompiler22CompileBitwiseOperatorEP13asCScriptNodeP14asCExprContextS3_S3_10eTokenType
libangelscript.so.2.35.1:_ZN11asCCompiler22CompileBooleanOperatorEP13asCScriptNodeP14asCExprContextS3_S3_10eTokenType
libangelscript.so.2.35.1:_ZN11asCCompiler22CompileExpressionPreOpEP13asCScriptNodeP14asCExprContext
libangelscript.so.2.35.1:_ZN11asCCompiler22CompileExpressionValueEP13asCScriptNodeP14asCExprContext
libangelscript.so.2.35.1:_ZN11asCCompiler22CompileInitListElementERP18asSListPatternNodeRP13asCScriptNodeisRjR11asCByteCodeRi
libangelscript.so.2.35.1:_ZN11asCCompiler22CompileReturnStatementEP13asCScriptNodeP11asCByteCode
libangelscript.so.2.35.1:_ZN11asCCompiler22CompileSwitchStatementEP13asCScriptNodePbP11asCByteCode
libangelscript.so.2.35.1:_ZN11asCCompiler22ConvertToVariableNotInEP14asCExprContextS1_
libangelscript.so.2.35.1:_ZN11asCCompiler23CompileDoWhileStatementEP13asCScriptNodeP11asCByteCode
libangelscript.so.2.35.1:_ZN11asCCompiler23CompileExpressionPostOpEP13asCScriptNodeP14asCExprContext
libangelscript.so.2.35.1:_ZN11asCCompiler23ImplicitConvObjectValueEP14asCExprContextRK11asCDataTypeP13asCScriptNode13EImplicitConvb
libangelscript.so.2.35.1:_ZN11asCCompiler24CompileAnonymousInitListEP13asCScriptNodeP14asCExprContextRK11asCDataType
libangelscript.so.2.35.1:_ZN11asCCompiler24CompileContinueStatementEP13asCScriptNodeP11asCByteCode
libangelscript.so.2.35.1:_ZN11asCCompiler24CompileOperatorOnHandlesEP13asCScriptNodeP14asCExprContextS3_S3_10eTokenType
libangelscript.so.2.35.1:_ZN11asCCompiler24CompilePostFixExpressionEP8asCArrayIP13asCScriptNodeEP14asCExprContext
libangelscript.so.2.35.1:_ZN11asCCompiler24ImplicitConvLambdaToFuncEP14asCExprContextRK11asCDataTypeP13asCScriptNode13EImplicitConvb
libangelscript.so.2.35.1:_ZN11asCCompiler24MergeExprBytecodeAndTypeEP14asCExprContextS1_
libangelscript.so.2.35.1:_ZN11asCCompiler24PrepareTemporaryVariableEP13asCScriptNodeP14asCExprContextb
libangelscript.so.2.35.1:_ZN11asCCompiler24ReleaseTemporaryVariableER12asCExprValueP11asCByteCode
libangelscript.so.2.35.1:_ZN11asCCompiler24ReleaseTemporaryVariableEiP11asCByteCode
libangelscript.so.2.35.1:_ZN11asCCompiler25CompileComparisonOperatorEP13asCScriptNodeP14asCExprContextS3_S3_10eTokenType
libangelscript.so.2.35.1:_ZN11asCCompiler25CompileDefaultConstructorEP10asCBuilderP13asCScriptCodeP13asCScriptNodeP17asCScriptFunctionP17sClassDeclaration
libangelscript.so.2.35.1:_ZN11asCCompiler26CompileDefaultAndNamedArgsEP13asCScriptNodeR8asCArrayIP14asCExprContextEiP13asCObjectTypePS2_I16asSNamedArgumentE
libangelscript.so.2.35.1:_ZN11asCCompiler26CompileExpressionStatementEP13asCScriptNodeP11asCByteCode
libangelscript.so.2.35.1:_ZN11asCCompiler26ConvertToTempVariableNotInEP14asCExprContextS1_
libangelscript.so.2.35.1:_ZN11asCCompiler26ImplicitConvObjectToObjectEP14asCExprContextRK11asCDataTypeP13asCScriptNode13EImplicitConvbb
libangelscript.so.2.35.1:_ZN11asCCompiler26ImplicitConversionConstantEP14asCExprContextRK11asCDataTypeP13asCScriptNode13EImplicitConv
libangelscript.so.2.35.1:_ZN11asCCompiler26ProcessPropertyGetAccessorEP14asCExprContextP13asCScriptNode
libangelscript.so.2.35.1:_ZN11asCCompiler26ProcessPropertySetAccessorEP14asCExprContextS1_P13asCScriptNode
libangelscript.so.2.35.1:_ZN11asCCompiler27CompileMemberInitializationEP11asCByteCodeb
libangelscript.so.2.35.1:_ZN11asCCompiler28ProcessHeredocStringConstantER9asCStringP13asCScriptNode
libangelscript.so.2.35.1:_ZN11asCCompiler29CompileOverloadedDualOperatorEP13asCScriptNodeP14asCExprContextS3_bS3_b10eTokenType
libangelscript.so.2.35.1:_ZN11asCCompiler29ImplicitConvObjectToPrimitiveEP14asCExprContextRK11asCDataTypeP13asCScriptNode13EImplicitConvb
libangelscript.so.2.35.1:_ZN11asCCompiler29ImplicitConvPrimitiveToObjectEP14asCExprContextRK11asCDataTypeP13asCScriptNode13EImplicitConvbb
libangelscript.so.2.35.1:_ZN11asCCompiler29ProcessPropertyGetSetAccessorEP14asCExprContextS1_S1_10eTokenTypeP13asCScriptNode
libangelscript.so.2.35.1:_ZN11asCCompiler30CompileOverloadedDualOperator2EP13asCScriptNodePKcP14asCExprContextS5_bS5_bRK11asCDataType
libangelscript.so.2.35.1:_ZN11asCCompiler32ImplicitConvObjectToBestMathTypeEP14asCExprContextP13asCScriptNode
libangelscript.so.2.35.1:_ZN11asCCompiler32ImplicitConvPrimitiveToPrimitiveEP14asCExprContextRK11asCDataTypeP13asCScriptNode13EImplicitConvb
libangelscript.so.2.35.1:_ZN11asCCompiler32SetupParametersAndReturnVariableER8asCArrayI9asCStringEP13asCScriptNode
libangelscript.so.2.35.1:_ZN11asCCompiler5ErrorERK9asCStringP13asCScriptNode
libangelscript.so.2.35.1:_ZN11asCCompiler5ResetEP10asCBuilderP13asCScriptCodeP17asCScriptFunction
libangelscript.so.2.35.1:_ZN11asCCompiler7WarningERK9asCStringP13asCScriptNode
libangelscript.so.2.35.1:_ZN11asCCompiler8IsLValueER12asCExprValue
libangelscript.so.2.35.1:_ZN11asCCompiler9LineInstrEP11asCByteCodem
libangelscript.so.2.35.1:_ZN11asCCompilerC1EP15asCScriptEngine
libangelscript.so.2.35.1:_ZN11asCCompilerC2EP15asCScriptEngine
libangelscript.so.2.35.1:_ZN11asCCompilerD1Ev
libangelscript.so.2.35.1:_ZN11asCCompilerD2Ev
libangelscript.so.2.35.1:_ZN11asCDataType10CreateAutoEb
libangelscript.so.2.35.1:_ZN11asCDataType10CreateTypeEP11asCTypeInfob
libangelscript.so.2.35.1:_ZN11asCDataType10MakeHandleEbb
libangelscript.so.2.35.1:_ZN11asCDataType12MakeReadOnlyEb
libangelscript.so.2.35.1:_ZN11asCDataType13MakeReferenceEb
libangelscript.so.2.35.1:_ZN11asCDataType15CreatePrimitiveE10eTokenTypeb
libangelscript.so.2.35.1:_ZN11asCDataType16CreateNullHandleEv
libangelscript.so.2.35.1:_ZN11asCDataType17MakeHandleToConstEb
libangelscript.so.2.35.1:_ZN11asCDataType18CreateObjectHandleEP11asCTypeInfob
libangelscript.so.2.35.1:_ZN11asCDataType9MakeArrayEP15asCScriptEngineP9asCModule
libangelscript.so.2.35.1:_ZN11asCDataTypeC1ERKS_
libangelscript.so.2.35.1:_ZN11asCDataTypeC1Ev
libangelscript.so.2.35.1:_ZN11asCDataTypeC2ERKS_
libangelscript.so.2.35.1:_ZN11asCDataTypeC2Ev
libangelscript.so.2.35.1:_ZN11asCDataTypeD1Ev
libangelscript.so.2.35.1:_ZN11asCDataTypeD2Ev
libangelscript.so.2.35.1:_ZN11asCDataTypeaSERKS_
libangelscript.so.2.35.1:_ZN11asCEnumTypeD0Ev
libangelscript.so.2.35.1:_ZN11asCEnumTypeD1Ev
libangelscript.so.2.35.1:_ZN11asCEnumTypeD2Ev
libangelscript.so.2.35.1:_ZN11asCTypeInfo11SetUserDataEPvm
libangelscript.so.2.35.1:_ZN11asCTypeInfo13CleanUserDataEv
libangelscript.so.2.35.1:_ZN11asCTypeInfo14AddRefInternalEv
libangelscript.so.2.35.1:_ZN11asCTypeInfo15ReleaseInternalEv
libangelscript.so.2.35.1:_ZN11asCTypeInfoC1EP15asCScriptEngine
libangelscript.so.2.35.1:_ZN11asCTypeInfoC1Ev
libangelscript.so.2.35.1:_ZN11asCTypeInfoC2EP15asCScriptEngine
libangelscript.so.2.35.1:_ZN11asCTypeInfoC2Ev
libangelscript.so.2.35.1:_ZN11asCTypeInfoD0Ev
libangelscript.so.2.35.1:_ZN11asCTypeInfoD1Ev
libangelscript.so.2.35.1:_ZN11asCTypeInfoD2Ev
libangelscript.so.2.35.1:_ZN12asCExprValue11SetVariableERK11asCDataTypeib
libangelscript.so.2.35.1:_ZN12asCExprValue12GetConstantBEv
libangelscript.so.2.35.1:_ZN12asCExprValue12GetConstantDEv
libangelscript.so.2.35.1:_ZN12asCExprValue12GetConstantFEv
libangelscript.so.2.35.1:_ZN12asCExprValue12GetConstantWEv
libangelscript.so.2.35.1:_ZN12asCExprValue12SetConstantBERK11asCDataTypeh
libangelscript.so.2.35.1:_ZN12asCExprValue12SetConstantBEh
libangelscript.so.2.35.1:_ZN12asCExprValue12SetConstantDERK11asCDataTyped
libangelscript.so.2.35.1:_ZN12asCExprValue12SetConstantDEd
libangelscript.so.2.35.1:_ZN12asCExprValue12SetConstantFERK11asCDataTypef
libangelscript.so.2.35.1:_ZN12asCExprValue12SetConstantFEf
libangelscript.so.2.35.1:_ZN12asCExprValue12SetConstantWERK11asCDataTypet
libangelscript.so.2.35.1:_ZN12asCExprValue12SetConstantWEt
libangelscript.so.2.35.1:_ZN12asCExprValue13GetConstantDWEv
libangelscript.so.2.35.1:_ZN12asCExprValue13GetConstantQWEv
libangelscript.so.2.35.1:_ZN12asCExprValue13SetConstantDWERK11asCDataTypej
libangelscript.so.2.35.1:_ZN12asCExprValue13SetConstantDWEj
libangelscript.so.2.35.1:_ZN12asCExprValue13SetConstantQWERK11asCDataTypem
libangelscript.so.2.35.1:_ZN12asCExprValue13SetConstantQWEm
libangelscript.so.2.35.1:_ZN12asCExprValue15GetConstantDataEv
libangelscript.so.2.35.1:_ZN12asCExprValue15SetConstantDataERK11asCDataTypem
libangelscript.so.2.35.1:_ZN12asCExprValue15SetNullConstantEv
libangelscript.so.2.35.1:_ZN12asCExprValue22SetUndefinedFuncHandleEP15asCScriptEngine
libangelscript.so.2.35.1:_ZN12asCExprValue3SetERK11asCDataType
libangelscript.so.2.35.1:_ZN12asCExprValue7SetVoidEv
libangelscript.so.2.35.1:_ZN12asCExprValue8SetDummyEv
libangelscript.so.2.35.1:_ZN12asCExprValueC1Ev
libangelscript.so.2.35.1:_ZN12asCExprValueC2Ev
libangelscript.so.2.35.1:_ZN12asCMemoryMgr14FreeScriptNodeEPv
libangelscript.so.2.35.1:_ZN12asCMemoryMgr15AllocScriptNodeEv
libangelscript.so.2.35.1:_ZN12asCMemoryMgr16FreeUnusedMemoryEv
libangelscript.so.2.35.1:_ZN12asCMemoryMgr19FreeByteInstructionEPv
libangelscript.so.2.35.1:_ZN12asCMemoryMgr20AllocByteInstructionEv
libangelscript.so.2.35.1:_ZN12asCMemoryMgrC1Ev
libangelscript.so.2.35.1:_ZN12asCMemoryMgrC2Ev
libangelscript.so.2.35.1:_ZN12asCMemoryMgrD1Ev
libangelscript.so.2.35.1:_ZN12asCMemoryMgrD2Ev
libangelscript.so.2.35.1:_ZN12asCTokenizer13GetDefinitionEi
libangelscript.so.2.35.1:_ZN12asCTokenizerC1Ev
libangelscript.so.2.35.1:_ZN12asCTokenizerC2Ev
libangelscript.so.2.35.1:_ZN12asCTokenizerD1Ev
libangelscript.so.2.35.1:_ZN12asCTokenizerD2Ev
libangelscript.so.2.35.1:_ZN13asCObjectType15DestroyInternalEv
libangelscript.so.2.35.1:_ZN13asCObjectType18AddPropertyToClassERK9asCStringRK11asCDataTypebbb
libangelscript.so.2.35.1:_ZN13asCObjectType19ReleaseAllFunctionsEv
libangelscript.so.2.35.1:_ZN13asCObjectType20ReleaseAllPropertiesEv
libangelscript.so.2.35.1:_ZN13asCObjectTypeC1EP15asCScriptEngine
libangelscript.so.2.35.1:_ZN13asCObjectTypeC1Ev
libangelscript.so.2.35.1:_ZN13asCObjectTypeC2EP15asCScriptEngine
libangelscript.so.2.35.1:_ZN13asCObjectTypeC2Ev
libangelscript.so.2.35.1:_ZN13asCObjectTypeD0Ev
libangelscript.so.2.35.1:_ZN13asCObjectTypeD1Ev
libangelscript.so.2.35.1:_ZN13asCObjectTypeD2Ev
libangelscript.so.2.35.1:_ZN13asCScriptCode11TokenEqualsEmmPKc
libangelscript.so.2.35.1:_ZN13asCScriptCode18ConvertPosToRowColEmPiS0_
libangelscript.so.2.35.1:_ZN13asCScriptCode7SetCodeEPKcS1_b
libangelscript.so.2.35.1:_ZN13asCScriptCode7SetCodeEPKcS1_mb
libangelscript.so.2.35.1:_ZN13asCScriptCodeC1Ev
libangelscript.so.2.35.1:_ZN13asCScriptCodeC2Ev
libangelscript.so.2.35.1:_ZN13asCScriptCodeD1Ev
libangelscript.so.2.35.1:_ZN13asCScriptCodeD2Ev
libangelscript.so.2.35.1:_ZN13asCScriptNode10CreateCopyEP15asCScriptEngine
libangelscript.so.2.35.1:_ZN13asCScriptNode12AddChildLastEPS_
libangelscript.so.2.35.1:_ZN13asCScriptNode15UpdateSourcePosEmm
libangelscript.so.2.35.1:_ZN13asCScriptNode16DisconnectParentEv
libangelscript.so.2.35.1:_ZN13asCScriptNode7DestroyEP15asCScriptEngine
libangelscript.so.2.35.1:_ZN13asCScriptNode8SetTokenEP6sToken
libangelscript.so.2.35.1:_ZN13asCScriptNodeC1E11eScriptNode
libangelscript.so.2.35.1:_ZN13asCScriptNodeC2E11eScriptNode
libangelscript.so.2.35.1:_ZN14asCConfigGroup14HasLiveObjectsEv
libangelscript.so.2.35.1:_ZN14asCConfigGroup14RefConfigGroupEPS_
libangelscript.so.2.35.1:_ZN14asCConfigGroup19RemoveConfigurationEP15asCScriptEngineb
libangelscript.so.2.35.1:_ZN14asCConfigGroup20AddReferencesForFuncEP15asCScriptEngineP17asCScriptFunction
libangelscript.so.2.35.1:_ZN14asCConfigGroup20AddReferencesForTypeEP15asCScriptEngineP11asCTypeInfo
libangelscript.so.2.35.1:_ZN14asCConfigGroup6AddRefEv
libangelscript.so.2.35.1:_ZN14asCConfigGroup7ReleaseEv
libangelscript.so.2.35.1:_ZN14asCConfigGroup8FindTypeEPKc
libangelscript.so.2.35.1:_ZN14asCConfigGroupC1Ev
libangelscript.so.2.35.1:_ZN14asCConfigGroupC2Ev
libangelscript.so.2.35.1:_ZN14asCConfigGroupD1Ev
libangelscript.so.2.35.1:_ZN14asCConfigGroupD2Ev
libangelscript.so.2.35.1:_ZN14asCExprContext17SetVoidExpressionEv
libangelscript.so.2.35.1:_ZN14asCExprContext20SetAnonymousInitListEP13asCScriptNodeP13asCScriptCode
libangelscript.so.2.35.1:_ZN14asCExprContext4CopyEPS_
libangelscript.so.2.35.1:_ZN14asCExprContext5ClearEv
libangelscript.so.2.35.1:_ZN14asCExprContext5MergeEPS_
libangelscript.so.2.35.1:_ZN14asCExprContext9SetLambdaEP13asCScriptNode
libangelscript.so.2.35.1:_ZN14asCExprContextC1EP15asCScriptEngine
libangelscript.so.2.35.1:_ZN14asCExprContextC2EP15asCScriptEngine
libangelscript.so.2.35.1:_ZN14asCExprContextD1Ev
libangelscript.so.2.35.1:_ZN14asCExprContextD2Ev
libangelscript.so.2.35.1:_ZN14asCFuncdefType15DestroyInternalEv
libangelscript.so.2.35.1:_ZN14asCFuncdefTypeC1EP15asCScriptEngineP17asCScriptFunction
libangelscript.so.2.35.1:_ZN14asCFuncdefTypeC2EP15asCScriptEngineP17asCScriptFunction
libangelscript.so.2.35.1:_ZN14asCFuncdefTypeD0Ev
libangelscript.so.2.35.1:_ZN14asCFuncdefTypeD1Ev
libangelscript.so.2.35.1:_ZN14asCFuncdefTypeD2Ev
libangelscript.so.2.35.1:_ZN14asCTypedefType15DestroyInternalEv
libangelscript.so.2.35.1:_ZN14asCTypedefTypeD0Ev
libangelscript.so.2.35.1:_ZN14asCTypedefTypeD1Ev
libangelscript.so.2.35.1:_ZN14asCTypedefTypeD2Ev
libangelscript.so.2.35.1:_ZN15asCOutputBuffer14SendToCallbackEP15asCScriptEngineP26asSSystemFunctionInterfacePv
libangelscript.so.2.35.1:_ZN15asCOutputBuffer5ClearEv
libangelscript.so.2.35.1:_ZN15asCOutputBuffer6AppendERS_
libangelscript.so.2.35.1:_ZN15asCOutputBuffer8CallbackEP14asSMessageInfo
libangelscript.so.2.35.1:_ZN15asCOutputBufferD1Ev
libangelscript.so.2.35.1:_ZN15asCOutputBufferD2Ev
libangelscript.so.2.35.1:_ZN15asCScriptEngine11ConfigErrorEiPKcS1_S1_
libangelscript.so.2.35.1:_ZN15asCScriptEngine11DestroyListEPhPK13asCObjectType
libangelscript.so.2.35.1:_ZN15asCScriptEngine11SetUserDataEPvm
libangelscript.so.2.35.1:_ZN15asCScriptEngine12AddNameSpaceEPKc
libangelscript.so.2.35.1:_ZN15asCScriptEngine12RegisterEnumEPKc
libangelscript.so.2.35.1:_ZN15asCScriptEngine12RequestBuildEv
libangelscript.so.2.35.1:_ZN15asCScriptEngine12WriteMessageEPKcii10asEMsgTypeS1_
libangelscript.so.2.35.1:_ZN15asCScriptEngine13CreateContextEPP16asIScriptContextb
libangelscript.so.2.35.1:_ZN15asCScriptEngine13CreateContextEv
libangelscript.so.2.35.1:_ZN15asCScriptEngine13DiscardModuleEPKc
libangelscript.so.2.35.1:_ZN15asCScriptEngine13GetObjectInGCEjPjPPvPP11asITypeInfo
libangelscript.so.2.35.1:_ZN15asCScriptEngine13PrepareEngineEv
libangelscript.so.2.35.1:_ZN15asCScriptEngine13RefCastObjectEPvP11asITypeInfoS2_PS0_b
libangelscript.so.2.35.1:_ZN15asCScriptEngine13RemoveFuncdefEP14asCFuncdefType
libangelscript.so.2.35.1:_ZN15asCScriptEngine13ReturnContextEP16asIScriptContext
libangelscript.so.2.35.1:_ZN15asCScriptEngine14BuildCompletedEv
libangelscript.so.2.35.1:_ZN15asCScriptEngine14CreateDelegateEP17asIScriptFunctionPv
libangelscript.so.2.35.1:_ZN15asCScriptEngine14DestroySubListERPhRP18asSListPatternNode
libangelscript.so.2.35.1:_ZN15asCScriptEngine14EndConfigGroupEv
libangelscript.so.2.35.1:_ZN15asCScriptEngine14GCEnumCallbackEPv
libangelscript.so.2.35.1:_ZN15asCScriptEngine14GarbageCollectEjj
libangelscript.so.2.35.1:_ZN15asCScriptEngine14RequestContextEv
libangelscript.so.2.35.1:_ZN15asCScriptEngine14SetJITCompilerEP14asIJITCompiler
libangelscript.so.2.35.1:_ZN15asCScriptEngine15RegisterFuncdefEPKc
libangelscript.so.2.35.1:_ZN15asCScriptEngine15RegisterTypedefEPKcS1_
libangelscript.so.2.35.1:_ZN15asCScriptEngine16BeginConfigGroupEPKc
libangelscript.so.2.35.1:_ZN15asCScriptEngine17AddScriptFunctionEP17asCScriptFunction
libangelscript.so.2.35.1:_ZN15asCScriptEngine17GetMethodIdByDeclEPK13asCObjectTypePKcP9asCModule
libangelscript.so.2.35.1:_ZN15asCScriptEngine17RegisterEnumValueEPKcS1_i
libangelscript.so.2.35.1:_ZN15asCScriptEngine17RegisterInterfaceEPKc
libangelscript.so.2.35.1:_ZN15asCScriptEngine17RemoveConfigGroupEPKc
libangelscript.so.2.35.1:_ZN15asCScriptEngine17SetEnginePropertyE13asEEnginePropm
libangelscript.so.2.35.1:_ZN15asCScriptEngine18AddRefScriptObjectEPvPK11asITypeInfo
libangelscript.so.2.35.1:_ZN15asCScriptEngine18AssignScriptObjectEPvS0_PK11asITypeInfo
libangelscript.so.2.35.1:_ZN15asCScriptEngine18CreateScriptObjectEPK11asITypeInfo
libangelscript.so.2.35.1:_ZN15asCScriptEngine18GetFactoryIdByDeclEPK13asCObjectTypePKc
libangelscript.so.2.35.1:_ZN15asCScriptEngine18GetListPatternTypeEi
libangelscript.so.2.35.1:_ZN15asCScriptEngine18RegisterObjectTypeEPKcij
libangelscript.so.2.35.1:_ZN15asCScriptEngine18SetMessageCallbackERK10asSFuncPtrPvj
libangelscript.so.2.35.1:_ZN15asCScriptEngine18ShutDownAndReleaseEv
libangelscript.so.2.35.1:_ZN15asCScriptEngine19FindMatchingFuncdefEP17asCScriptFunctionP9asCModule
libangelscript.so.2.35.1:_ZN15asCScriptEngine19GetModuleFromFuncIdEi
libangelscript.so.2.35.1:_ZN15asCScriptEngine19ReleaseScriptObjectEPvPK11asITypeInfo
libangelscript.so.2.35.1:_ZN15asCScriptEngine19RemoveFromTypeIdMapEP11asCTypeInfo
libangelscript.so.2.35.1:_ZN15asCScriptEngine19SetContextCallbacksEPFP16asIScriptContextP15asIScriptEnginePvEPFvS3_S1_S4_ES4_
libangelscript.so.2.35.1:_ZN15asCScriptEngine19SetDefaultNamespaceEPKc
libangelscript.so.2.35.1:_ZN15asCScriptEngine20AddBehaviourFunctionER17asCScriptFunctionR26asSSystemFunctionInterface
libangelscript.so.2.35.1:_ZN15asCScriptEngine20ClearMessageCallbackEv
libangelscript.so.2.35.1:_ZN15asCScriptEngine20RegisterObjectMethodEPKcS1_RK10asSFuncPtrjPvib
libangelscript.so.2.35.1:_ZN15asCScriptEngine20RemoveGlobalPropertyEP17asCGlobalProperty
libangelscript.so.2.35.1:_ZN15asCScriptEngine20RemoveScriptFunctionEP17asCScriptFunction
libangelscript.so.2.35.1:_ZN15asCScriptEngine20SetDefaultAccessMaskEj
libangelscript.so.2.35.1:_ZN15asCScriptEngine21RegisterStringFactoryEPKcP16asIStringFactory
libangelscript.so.2.35.1:_ZN15asCScriptEngine22AllocateGlobalPropertyEv
libangelscript.so.2.35.1:_ZN15asCScriptEngine22CallScriptObjectMethodEPvi
libangelscript.so.2.35.1:_ZN15asCScriptEngine22CreateScriptObjectCopyEPvPK11asITypeInfo
libangelscript.so.2.35.1:_ZN15asCScriptEngine22DeleteDiscardedModulesEv
libangelscript.so.2.35.1:_ZN15asCScriptEngine22GetFunctionDeclarationEi
libangelscript.so.2.35.1:_ZN15asCScriptEngine22RegisterGlobalFunctionEPKcRK10asSFuncPtrjPv
libangelscript.so.2.35.1:_ZN15asCScriptEngine22RegisterGlobalPropertyEPKcPv
libangelscript.so.2.35.1:_ZN15asCScriptEngine22RegisterObjectPropertyEPKcS1_iib
libangelscript.so.2.35.1:_ZN15asCScriptEngine22RequireTypeReplacementER11asCDataTypeP13asCObjectType
libangelscript.so.2.35.1:_ZN15asCScriptEngine23ForwardGCEnumReferencesEPvP11asITypeInfo
libangelscript.so.2.35.1:_ZN15asCScriptEngine23GetNextScriptFunctionIdEv
libangelscript.so.2.35.1:_ZN15asCScriptEngine23GetTemplateInstanceTypeEP13asCObjectTypeR8asCArrayI11asCDataTypeEP9asCModule
libangelscript.so.2.35.1:_ZN15asCScriptEngine23RegisterInterfaceMethodEPKcS1_
libangelscript.so.2.35.1:_ZN15asCScriptEngine23RegisterObjectBehaviourEPKc13asEBehavioursS1_RK10asSFuncPtrjPvib
libangelscript.so.2.35.1:_ZN15asCScriptEngine23SetTemplateRestrictionsEP13asCObjectTypeP17asCScriptFunctionPKcS5_
libangelscript.so.2.35.1:_ZN15asCScriptEngine24DetermineTypeForTemplateERK11asCDataTypeP13asCObjectTypeS4_
libangelscript.so.2.35.1:_ZN15asCScriptEngine24RegisterDefaultArrayTypeEPKc
libangelscript.so.2.35.1:_ZN15asCScriptEngine25ConstructScriptObjectCopyEPvS0_P13asCObjectType
libangelscript.so.2.35.1:_ZN15asCScriptEngine25FindNewOwnerForSharedFuncEP17asCScriptFunctionP9asCModule
libangelscript.so.2.35.1:_ZN15asCScriptEngine25FindNewOwnerForSharedTypeEP11asCTypeInfoP9asCModule
libangelscript.so.2.35.1:_ZN15asCScriptEngine25GetScriptSectionNameIndexEPKc
libangelscript.so.2.35.1:_ZN15asCScriptEngine26ForwardGCReleaseReferencesEPvP11asITypeInfo
libangelscript.so.2.35.1:_ZN15asCScriptEngine26GenerateNewTemplateFuncdefEP13asCObjectTypeS1_P14asCFuncdefType
libangelscript.so.2.35.1:_ZN15asCScriptEngine26RegisterMethodToObjectTypeEP13asCObjectTypePKcRK10asSFuncPtrjPvib
libangelscript.so.2.35.1:_ZN15asCScriptEngine26RemoveTemplateInstanceTypeEP13asCObjectType
libangelscript.so.2.35.1:_ZN15asCScriptEngine26VerifyVarTypeNotInFunctionEP17asCScriptFunction
libangelscript.so.2.35.1:_ZN15asCScriptEngine27GenerateNewTemplateFunctionEP13asCObjectTypeS1_P17asCScriptFunctionPS3_
libangelscript.so.2.35.1:_ZN15asCScriptEngine27GenerateTemplateFactoryStubEP13asCObjectTypeS1_i
libangelscript.so.2.35.1:_ZN15asCScriptEngine29RegisterBehaviourToObjectTypeEP13asCObjectType13asEBehavioursPKcRK10asSFuncPtrjPvib
libangelscript.so.2.35.1:_ZN15asCScriptEngine30SetCircularRefDetectedCallbackEPFvP11asITypeInfoPKvPvES4_
libangelscript.so.2.35.1:_ZN15asCScriptEngine31CreateUninitializedScriptObjectEPK11asITypeInfo
libangelscript.so.2.35.1:_ZN15asCScriptEngine32SetEngineUserDataCleanupCallbackEPFvP15asIScriptEngineEm
libangelscript.so.2.35.1:_ZN15asCScriptEngine32SetModuleUserDataCleanupCallbackEPFvP15asIScriptModuleEm
libangelscript.so.2.35.1:_ZN15asCScriptEngine32SetTranslateAppExceptionCallbackE10asSFuncPtrPvi
libangelscript.so.2.35.1:_ZN15asCScriptEngine33NotifyGarbageCollectorOfNewObjectEPvP11asITypeInfo
libangelscript.so.2.35.1:_ZN15asCScriptEngine33SetContextUserDataCleanupCallbackEPFvP16asIScriptContextEm
libangelscript.so.2.35.1:_ZN15asCScriptEngine34SetFunctionUserDataCleanupCallbackEPFvP17asIScriptFunctionEm
libangelscript.so.2.35.1:_ZN15asCScriptEngine34SetTypeInfoUserDataCleanupCallbackEPFvP11asITypeInfoEm
libangelscript.so.2.35.1:_ZN15asCScriptEngine38SetScriptObjectUserDataCleanupCallbackEPFvP15asIScriptObjectEm
libangelscript.so.2.35.1:_ZN15asCScriptEngine9GetModuleEPKc10asEGMFlags
libangelscript.so.2.35.1:_ZN15asCScriptEngine9GetModuleEPKcb
libangelscript.so.2.35.1:_ZN15asCScriptEngineC1Ev
libangelscript.so.2.35.1:_ZN15asCScriptEngineC2Ev
libangelscript.so.2.35.1:_ZN15asCScriptEngineD0Ev
libangelscript.so.2.35.1:_ZN15asCScriptEngineD1Ev
libangelscript.so.2.35.1:_ZN15asCScriptEngineD2Ev
libangelscript.so.2.35.1:_ZN15asCScriptObject10CopyFromAsEPKS_P13asCObjectType
libangelscript.so.2.35.1:_ZN15asCScriptObject10CopyHandleEPmS0_P13asCObjectTypeP15asCScriptEngine
libangelscript.so.2.35.1:_ZN15asCScriptObject10CopyObjectEPKvPvP13asCObjectTypeP15asCScriptEngine
libangelscript.so.2.35.1:_ZN15asCScriptObject10FreeObjectEPvP13asCObjectTypeP15asCScriptEngine
libangelscript.so.2.35.1:_ZN15asCScriptObject11GetRefCountEv
libangelscript.so.2.35.1:_ZN15asCScriptObject11SetUserDataEPvm
libangelscript.so.2.35.1:_ZN15asCScriptObject14CallDestructorEv
libangelscript.so.2.35.1:_ZN15asCScriptObject14EnumReferencesEP15asIScriptEngine
libangelscript.so.2.35.1:_ZN15asCScriptObject17ReleaseAllHandlesEP15asIScriptEngine
libangelscript.so.2.35.1:_ZN15asCScriptObject20GetAddressOfPropertyEj
libangelscript.so.2.35.1:_ZN15asCScriptObject27AllocateUninitializedObjectEP13asCObjectTypeP15asCScriptEngine
libangelscript.so.2.35.1:_ZN15asCScriptObject7GetFlagEv
libangelscript.so.2.35.1:_ZN15asCScriptObject7SetFlagEv
libangelscript.so.2.35.1:_ZN15asCScriptObject8CopyFromEPK15asIScriptObject
libangelscript.so.2.35.1:_ZN15asCScriptObject8DestructEv
libangelscript.so.2.35.1:_ZN15asCScriptObjectC1EP13asCObjectTypeb
libangelscript.so.2.35.1:_ZN15asCScriptObjectC2EP13asCObjectTypeb
libangelscript.so.2.35.1:_ZN15asCScriptObjectD0Ev
libangelscript.so.2.35.1:_ZN15asCScriptObjectD1Ev
libangelscript.so.2.35.1:_ZN15asCScriptObjectD2Ev
libangelscript.so.2.35.1:_ZN15asCScriptObjectaSERKS_
libangelscript.so.2.35.1:_ZN16asCStringPointerC1EP9asCString
libangelscript.so.2.35.1:_ZN16asCStringPointerC1EPKcm
libangelscript.so.2.35.1:_ZN16asCStringPointerC1Ev
libangelscript.so.2.35.1:_ZN16asCStringPointerC2EP9asCString
libangelscript.so.2.35.1:_ZN16asCStringPointerC2EPKcm
libangelscript.so.2.35.1:_ZN16asCStringPointerC2Ev
libangelscript.so.2.35.1:_ZN16asCThreadManager12GetLocalDataEv
libangelscript.so.2.35.1:_ZN16asCThreadManager16CleanupLocalDataEv
libangelscript.so.2.35.1:_ZN16asCThreadManager7PrepareEP16asIThreadManager
libangelscript.so.2.35.1:_ZN16asCThreadManager9UnprepareEv
libangelscript.so.2.35.1:_ZN16asCThreadManagerC1Ev
libangelscript.so.2.35.1:_ZN16asCThreadManagerC2Ev
libangelscript.so.2.35.1:_ZN16asCThreadManagerD0Ev
libangelscript.so.2.35.1:_ZN16asCThreadManagerD1Ev
libangelscript.so.2.35.1:_ZN16asCThreadManagerD2Ev
libangelscript.so.2.35.1:_ZN16asCVariableScope11GetVariableEPKc
libangelscript.so.2.35.1:_ZN16asCVariableScope15DeclareVariableEPKcRK11asCDataTypeib
libangelscript.so.2.35.1:_ZN16asCVariableScope19GetVariableByOffsetEi
libangelscript.so.2.35.1:_ZN16asCVariableScope5ResetEv
libangelscript.so.2.35.1:_ZN16asCVariableScopeC1EPS_
libangelscript.so.2.35.1:_ZN16asCVariableScopeC2EPS_
libangelscript.so.2.35.1:_ZN16asCVariableScopeD1Ev
libangelscript.so.2.35.1:_ZN16asCVariableScopeD2Ev
libangelscript.so.2.35.1:_ZN17asCGlobalProperty11GetInitFuncEv
libangelscript.so.2.35.1:_ZN17asCGlobalProperty11SetInitFuncEP17asCScriptFunction
libangelscript.so.2.35.1:_ZN17asCGlobalProperty14AllocateMemoryEv
libangelscript.so.2.35.1:_ZN17asCGlobalProperty15DestroyInternalEv
libangelscript.so.2.35.1:_ZN17asCGlobalProperty17GetAddressOfValueEv
libangelscript.so.2.35.1:_ZN17asCGlobalProperty20SetRegisteredAddressEPv
libangelscript.so.2.35.1:_ZN17asCGlobalProperty6AddRefEv
libangelscript.so.2.35.1:_ZN17asCGlobalProperty7ReleaseEv
libangelscript.so.2.35.1:_ZN17asCGlobalPropertyC1Ev
libangelscript.so.2.35.1:_ZN17asCGlobalPropertyC2Ev
libangelscript.so.2.35.1:_ZN17asCGlobalPropertyD1Ev
libangelscript.so.2.35.1:_ZN17asCGlobalPropertyD2Ev
libangelscript.so.2.35.1:_ZN17asCScriptFunction10JITCompileEv
libangelscript.so.2.35.1:_ZN17asCScriptFunction11AddVariableER9asCStringR11asCDataTypei
libangelscript.so.2.35.1:_ZN17asCScriptFunction11GetByteCodeEPj
libangelscript.so.2.35.1:_ZN17asCScriptFunction11GetRefCountEv
libangelscript.so.2.35.1:_ZN17asCScriptFunction11SetUserDataEPvm
libangelscript.so.2.35.1:_ZN17asCScriptFunction12MakeDelegateEPS_Pv
libangelscript.so.2.35.1:_ZN17asCScriptFunction13AddReferencesEv
libangelscript.so.2.35.1:_ZN17asCScriptFunction13GetLineNumberEiPi
libangelscript.so.2.35.1:_ZN17asCScriptFunction14AddRefInternalEv
libangelscript.so.2.35.1:_ZN17asCScriptFunction14EnumReferencesEP15asIScriptEngine
libangelscript.so.2.35.1:_ZN17asCScriptFunction15DestroyInternalEv
libangelscript.so.2.35.1:_ZN17asCScriptFunction15ReleaseInternalEv
libangelscript.so.2.35.1:_ZN17asCScriptFunction16ParseListPatternERP18asSListPatternNodePKcP13asCScriptNode
libangelscript.so.2.35.1:_ZN17asCScriptFunction17ReleaseAllHandlesEP15asIScriptEngine
libangelscript.so.2.35.1:_ZN17asCScriptFunction17ReleaseReferencesEv
libangelscript.so.2.35.1:_ZN17asCScriptFunction18ComputeSignatureIdEv
libangelscript.so.2.35.1:_ZN17asCScriptFunction18DestroyHalfCreatedEv
libangelscript.so.2.35.1:_ZN17asCScriptFunction19RegisterListPatternEPKcP13asCScriptNode
libangelscript.so.2.35.1:_ZN17asCScriptFunction21GetTypeInfoOfLocalVarEs
libangelscript.so.2.35.1:_ZN17asCScriptFunction25GetPropertyByGlobalVarPtrEPv
libangelscript.so.2.35.1:_ZN17asCScriptFunction26AllocateScriptFunctionDataEv
libangelscript.so.2.35.1:_ZN17asCScriptFunction26GetSpaceNeededForArgumentsEv
libangelscript.so.2.35.1:_ZN17asCScriptFunction28DeallocateScriptFunctionDataEv
libangelscript.so.2.35.1:_ZN17asCScriptFunction28GetSpaceNeededForReturnValueEv
libangelscript.so.2.35.1:_ZN17asCScriptFunction7GetFlagEv
libangelscript.so.2.35.1:_ZN17asCScriptFunction7SetFlagEv
libangelscript.so.2.35.1:_ZN17asCScriptFunctionC1EP15asCScriptEngineP9asCModule11asEFuncType
libangelscript.so.2.35.1:_ZN17asCScriptFunctionC2EP15asCScriptEngineP9asCModule11asEFuncType
libangelscript.so.2.35.1:_ZN17asCScriptFunctionD0Ev
libangelscript.so.2.35.1:_ZN17asCScriptFunctionD1Ev
libangelscript.so.2.35.1:_ZN17asCScriptFunctionD2Ev
libangelscript.so.2.35.1:_ZN18asCByteInstruction16GetStackIncreaseEv
libangelscript.so.2.35.1:_ZN18asCByteInstruction6RemoveEv
libangelscript.so.2.35.1:_ZN18asCByteInstruction7GetSizeEv
libangelscript.so.2.35.1:_ZN18asCByteInstruction8AddAfterEPS_
libangelscript.so.2.35.1:_ZN18asCByteInstruction9AddBeforeEPS_
libangelscript.so.2.35.1:_ZN18asCByteInstructionC1Ev
libangelscript.so.2.35.1:_ZN18asCByteInstructionC2Ev
libangelscript.so.2.35.1:_ZN18asCThreadLocalDataC1Ev
libangelscript.so.2.35.1:_ZN18asCThreadLocalDataC2Ev
libangelscript.so.2.35.1:_ZN18asCThreadLocalDataD1Ev
libangelscript.so.2.35.1:_ZN18asCThreadLocalDataD2Ev
libangelscript.so.2.35.1:_ZN19asCGarbageCollector10ReturnNodeEP10asSMapNodeIPvNS_14asSIntTypePairEE
libangelscript.so.2.35.1:_ZN19asCGarbageCollector13GetObjectInGCEjPjPPvPP11asITypeInfo
libangelscript.so.2.35.1:_ZN19asCGarbageCollector14GCEnumCallbackEPv
libangelscript.so.2.35.1:_ZN19asCGarbageCollector14GarbageCollectEjj
libangelscript.so.2.35.1:_ZN19asCGarbageCollector17DestroyNewGarbageEv
libangelscript.so.2.35.1:_ZN19asCGarbageCollector17DestroyOldGarbageEv
libangelscript.so.2.35.1:_ZN19asCGarbageCollector17GetNewObjectAtIdxEi
libangelscript.so.2.35.1:_ZN19asCGarbageCollector17GetOldObjectAtIdxEi
libangelscript.so.2.35.1:_ZN19asCGarbageCollector19AddScriptObjectToGCEPvP13asCObjectType
libangelscript.so.2.35.1:_ZN19asCGarbageCollector19MoveObjectToOldListEi
libangelscript.so.2.35.1:_ZN19asCGarbageCollector20RemoveNewObjectAtIdxEi
libangelscript.so.2.35.1:_ZN19asCGarbageCollector20RemoveOldObjectAtIdxEi
libangelscript.so.2.35.1:_ZN19asCGarbageCollector23MoveAllObjectsToOldListEv
libangelscript.so.2.35.1:_ZN19asCGarbageCollector29IdentifyGarbageWithCyclicRefsEv
libangelscript.so.2.35.1:_ZN19asCGarbageCollector34ReportAndReleaseUndestroyedObjectsEv
libangelscript.so.2.35.1:_ZN19asCGarbageCollector7GetNodeEPvNS_14asSIntTypePairE
libangelscript.so.2.35.1:_ZN19asCGarbageCollectorC1Ev
libangelscript.so.2.35.1:_ZN19asCGarbageCollectorC2Ev
libangelscript.so.2.35.1:_ZN19asCGarbageCollectorD1Ev
libangelscript.so.2.35.1:_ZN19asCGarbageCollectorD2Ev
libangelscript.so.2.35.1:_ZN21asCLockableSharedBool3SetEb
libangelscript.so.2.35.1:_ZN21asCLockableSharedBoolC1Ev
libangelscript.so.2.35.1:_ZN21asCLockableSharedBoolC2Ev
libangelscript.so.2.35.1:_ZN22asCThreadReadWriteLock13AcquireSharedEv
libangelscript.so.2.35.1:_ZN22asCThreadReadWriteLock13ReleaseSharedEv
libangelscript.so.2.35.1:_ZN22asCThreadReadWriteLock16AcquireExclusiveEv
libangelscript.so.2.35.1:_ZN22asCThreadReadWriteLock16ReleaseExclusiveEv
libangelscript.so.2.35.1:_ZN22asCThreadReadWriteLockC1Ev
libangelscript.so.2.35.1:_ZN22asCThreadReadWriteLockC2Ev
libangelscript.so.2.35.1:_ZN22asCThreadReadWriteLockD1Ev
libangelscript.so.2.35.1:_ZN22asCThreadReadWriteLockD2Ev
libangelscript.so.2.35.1:_ZN24asCThreadCriticalSection5EnterEv
libangelscript.so.2.35.1:_ZN24asCThreadCriticalSection5LeaveEv
libangelscript.so.2.35.1:_ZN24asCThreadCriticalSection8TryEnterEv
libangelscript.so.2.35.1:_ZN24asCThreadCriticalSectionC1Ev
libangelscript.so.2.35.1:_ZN24asCThreadCriticalSectionC2Ev
libangelscript.so.2.35.1:_ZN24asCThreadCriticalSectionD1Ev
libangelscript.so.2.35.1:_ZN24asCThreadCriticalSectionD2Ev
libangelscript.so.2.35.1:_ZN9asCAtomic3setEj
libangelscript.so.2.35.1:_ZN9asCAtomic9atomicDecEv
libangelscript.so.2.35.1:_ZN9asCAtomic9atomicIncEv
libangelscript.so.2.35.1:_ZN9asCAtomicC1Ev
libangelscript.so.2.35.1:_ZN9asCAtomicC2Ev
libangelscript.so.2.35.1:_ZN9asCModule10AddFuncDefEP14asCFuncdefType
libangelscript.so.2.35.1:_ZN9asCModule10AddFuncDefERK9asCStringP12asSNameSpaceP13asCObjectType
libangelscript.so.2.35.1:_ZN9asCModule10AddTypeDefEP14asCTypedefType
libangelscript.so.2.35.1:_ZN9asCModule10JITCompileEv
libangelscript.so.2.35.1:_ZN9asCModule11AddEnumTypeEP11asCEnumType
libangelscript.so.2.35.1:_ZN9asCModule11SetUserDataEPvm
libangelscript.so.2.35.1:_ZN9asCModule12AddClassTypeEP13asCObjectType
libangelscript.so.2.35.1:_ZN9asCModule12LoadByteCodeEP15asIBinaryStreamPb
libangelscript.so.2.35.1:_ZN9asCModule13InternalResetEv
libangelscript.so.2.35.1:_ZN9asCModule13SetAccessMaskEj
libangelscript.so.2.35.1:_ZN9asCModule14InitGlobalPropEP17asCGlobalPropertyP16asIScriptContext
libangelscript.so.2.35.1:_ZN9asCModule14RemoveFunctionEP17asIScriptFunction
libangelscript.so.2.35.1:_ZN9asCModule14ReplaceFuncDefEP14asCFuncdefTypeS1_
libangelscript.so.2.35.1:_ZN9asCModule15CompileFunctionEPKcS1_ijPP17asIScriptFunction
libangelscript.so.2.35.1:_ZN9asCModule15RemoveGlobalVarEj
libangelscript.so.2.35.1:_ZN9asCModule15ResetGlobalVarsEP16asIScriptContext
libangelscript.so.2.35.1:_ZN9asCModule16AddScriptSectionEPKcS1_mi
libangelscript.so.2.35.1:_ZN9asCModule16CompileGlobalVarEPKcS1_i
libangelscript.so.2.35.1:_ZN9asCModule17AddScriptFunctionEP17asCScriptFunction
libangelscript.so.2.35.1:_ZN9asCModule17AddScriptFunctionEiiiRK9asCStringRK11asCDataTypeRK8asCArrayIS3_ERKS6_IS0_ERKS6_I16asETypeModifiersERKS6_IPS0_EbP13asCObjectTypeb17asSFunctionTraitsP12asSNameSpace
libangelscript.so.2.35.1:_ZN9asCModule19AddImportedFunctionEiRK9asCStringRK11asCDataTypeRK8asCArrayIS3_ERKS6_I16asETypeModifiersERKS6_IPS0_E17asSFunctionTraitsP12asSNameSpaceS2_
libangelscript.so.2.35.1:_ZN9asCModule19SetDefaultNamespaceEPKc
libangelscript.so.2.35.1:_ZN9asCModule20BindImportedFunctionEjP17asIScriptFunction
libangelscript.so.2.35.1:_ZN9asCModule21GetAddressOfGlobalVarEj
libangelscript.so.2.35.1:_ZN9asCModule21HasExternalReferencesEb
libangelscript.so.2.35.1:_ZN9asCModule22AllocateGlobalPropertyEPKcRK11asCDataTypeP12asSNameSpace
libangelscript.so.2.35.1:_ZN9asCModule22UnbindImportedFunctionEj
libangelscript.so.2.35.1:_ZN9asCModule22UninitializeGlobalPropEP17asCGlobalProperty
libangelscript.so.2.35.1:_ZN9asCModule24BindAllImportedFunctionsEv
libangelscript.so.2.35.1:_ZN9asCModule25GetNextImportedFunctionIdEv
libangelscript.so.2.35.1:_ZN9asCModule26UnbindAllImportedFunctionsEv
libangelscript.so.2.35.1:_ZN9asCModule5BuildEv
libangelscript.so.2.35.1:_ZN9asCModule7DiscardEv
libangelscript.so.2.35.1:_ZN9asCModule7SetNameEPKc
libangelscript.so.2.35.1:_ZN9asCModule8CallExitEv
libangelscript.so.2.35.1:_ZN9asCModule8CallInitEP16asIScriptContext
libangelscript.so.2.35.1:_ZN9asCModuleC1EPKcP15asCScriptEngine
libangelscript.so.2.35.1:_ZN9asCModuleC2EPKcP15asCScriptEngine
libangelscript.so.2.35.1:_ZN9asCModuleD0Ev
libangelscript.so.2.35.1:_ZN9asCModuleD1Ev
libangelscript.so.2.35.1:_ZN9asCModuleD2Ev
libangelscript.so.2.35.1:_ZN9asCParser10CreateNodeE11eScriptNode
libangelscript.so.2.35.1:_ZN9asCParser10IsConstantEi
libangelscript.so.2.35.1:_ZN9asCParser10IsDataTypeERK6sToken
libangelscript.so.2.35.1:_ZN9asCParser10IsFuncDeclEb
libangelscript.so.2.35.1:_ZN9asCParser10IsOperatorEi
libangelscript.so.2.35.1:_ZN9asCParser10IsRealTypeEi
libangelscript.so.2.35.1:_ZN9asCParser10ParseBreakEv
libangelscript.so.2.35.1:_ZN9asCParser10ParseClassEv
libangelscript.so.2.35.1:_ZN9asCParser10ParseMixinEv
libangelscript.so.2.35.1:_ZN9asCParser10ParseOneOfEPii
libangelscript.so.2.35.1:_ZN9asCParser10ParseTokenEi
libangelscript.so.2.35.1:_ZN9asCParser10ParseWhileEv
libangelscript.so.2.35.1:_ZN9asCParser11ParseImportEv
libangelscript.so.2.35.1:_ZN9asCParser11ParseLambdaEv
libangelscript.so.2.35.1:_ZN9asCParser11ParseReturnEv
libangelscript.so.2.35.1:_ZN9asCParser11ParseScriptEP13asCScriptCode
libangelscript.so.2.35.1:_ZN9asCParser11ParseScriptEb
libangelscript.so.2.35.1:_ZN9asCParser11ParseSwitchEv
libangelscript.so.2.35.1:_ZN9asCParser12IdentifierIsERK6sTokenPKc
libangelscript.so.2.35.1:_ZN9asCParser12InsteadFoundER6sToken
libangelscript.so.2.35.1:_ZN9asCParser12ParseArgListEb
libangelscript.so.2.35.1:_ZN9asCParser12ParseDoWhileEv
libangelscript.so.2.35.1:_ZN9asCParser12ParseFuncDefEv
libangelscript.so.2.35.1:_ZN9asCParser12ParseTypeModEb
libangelscript.so.2.35.1:_ZN9asCParser12ParseTypedefEv
libangelscript.so.2.35.1:_ZN9asCParser12ParseVarInitEP13asCScriptCodeP13asCScriptNode
libangelscript.so.2.35.1:_ZN9asCParser13ExpectedOneOfEPPKci
libangelscript.so.2.35.1:_ZN9asCParser13ExpectedOneOfEPii
libangelscript.so.2.35.1:_ZN9asCParser13ExpectedTokenEPKc
libangelscript.so.2.35.1:_ZN9asCParser13GetScriptNodeEv
libangelscript.so.2.35.1:_ZN9asCParser13IsPreOperatorEi
libangelscript.so.2.35.1:_ZN9asCParser13ParseConstantEv
libangelscript.so.2.35.1:_ZN9asCParser13ParseContinueEv
libangelscript.so.2.35.1:_ZN9asCParser13ParseDataTypeEP13asCScriptCodeb
libangelscript.so.2.35.1:_ZN9asCParser13ParseDataTypeEbb
libangelscript.so.2.35.1:_ZN9asCParser13ParseExprTermEv
libangelscript.so.2.35.1:_ZN9asCParser13ParseFunctionEb
libangelscript.so.2.35.1:_ZN9asCParser13ParseInitListEv
libangelscript.so.2.35.1:_ZN9asCParser13ParseRealTypeEv
libangelscript.so.2.35.1:_ZN9asCParser13ParseTryCatchEv
libangelscript.so.2.35.1:_ZN9asCParser14ExpectedTokensEPKcS1_
libangelscript.so.2.35.1:_ZN9asCParser14IsFunctionCallEv
libangelscript.so.2.35.1:_ZN9asCParser14IsPostOperatorEi
libangelscript.so.2.35.1:_ZN9asCParser14ParseConditionEv
libangelscript.so.2.35.1:_ZN9asCParser14ParseExprPreOpEv
libangelscript.so.2.35.1:_ZN9asCParser14ParseExprValueEv
libangelscript.so.2.35.1:_ZN9asCParser14ParseInterfaceEv
libangelscript.so.2.35.1:_ZN9asCParser14ParseNamespaceEv
libangelscript.so.2.35.1:_ZN9asCParser14ParseStatementEv
libangelscript.so.2.35.1:_ZN9asCParser15ParseAssignmentEv
libangelscript.so.2.35.1:_ZN9asCParser15ParseExprPostOpEv
libangelscript.so.2.35.1:_ZN9asCParser15ParseExpressionEP13asCScriptCode
libangelscript.so.2.35.1:_ZN9asCParser15ParseExpressionEv
libangelscript.so.2.35.1:_ZN9asCParser15ParseIdentifierEv
libangelscript.so.2.35.1:_ZN9asCParser16IsAssignOperatorEi
libangelscript.so.2.35.1:_ZN9asCParser16ParseDeclarationEbb
libangelscript.so.2.35.1:_ZN9asCParser16ParseEnumerationEv
libangelscript.so.2.35.1:_ZN9asCParser16ParseListPatternEv
libangelscript.so.2.35.1:_ZN9asCParser17CheckTemplateTypeERK6sToken
libangelscript.so.2.35.1:_ZN9asCParser17ParseExprOperatorEv
libangelscript.so.2.35.1:_ZN9asCParser17ParseFunctionCallEv
libangelscript.so.2.35.1:_ZN9asCParser17ParseTemplateDeclEP13asCScriptCode
libangelscript.so.2.35.1:_ZN9asCParser18ParseConstructCallEv
libangelscript.so.2.35.1:_ZN9asCParser18ParseOptionalScopeEP13asCScriptNode
libangelscript.so.2.35.1:_ZN9asCParser18ParseParameterListEv
libangelscript.so.2.35.1:_ZN9asCParser18ParseTemplTypeListEP13asCScriptNodeb
libangelscript.so.2.35.1:_ZN9asCParser19ParseAssignOperatorEv
libangelscript.so.2.35.1:_ZN9asCParser19ParseStatementBlockEP13asCScriptCodeP13asCScriptNode
libangelscript.so.2.35.1:_ZN9asCParser19ParseStatementBlockEv
libangelscript.so.2.35.1:_ZN9asCParser19ParseStringConstantEv
libangelscript.so.2.35.1:_ZN9asCParser19ParseVariableAccessEv
libangelscript.so.2.35.1:_ZN9asCParser20ParseInterfaceMethodEv
libangelscript.so.2.35.1:_ZN9asCParser21IsVirtualPropertyDeclEv
libangelscript.so.2.35.1:_ZN9asCParser21ParseMethodAttributesEP13asCScriptNode
libangelscript.so.2.35.1:_ZN9asCParser23ParseFunctionDefinitionEP13asCScriptCodeb
libangelscript.so.2.35.1:_ZN9asCParser23ParseFunctionDefinitionEv
libangelscript.so.2.35.1:_ZN9asCParser24ParseExpressionStatementEv
libangelscript.so.2.35.1:_ZN9asCParser24ParsePropertyDeclarationEP13asCScriptCode
libangelscript.so.2.35.1:_ZN9asCParser24ParseVirtualPropertyDeclEbb
libangelscript.so.2.35.1:_ZN9asCParser25SuperficiallyParseVarInitEv
libangelscript.so.2.35.1:_ZN9asCParser28SuperficiallyParseExpressionEv
libangelscript.so.2.35.1:_ZN9asCParser32SuperficiallyParseStatementBlockEv
libangelscript.so.2.35.1:_ZN9asCParser4InfoERK9asCStringP6sToken
libangelscript.so.2.35.1:_ZN9asCParser5ErrorERK9asCStringP6sToken
libangelscript.so.2.35.1:_ZN9asCParser5ResetEv
libangelscript.so.2.35.1:_ZN9asCParser6IsTypeER6sToken
libangelscript.so.2.35.1:_ZN9asCParser6SetPosEm
libangelscript.so.2.35.1:_ZN9asCParser7ParseIfEv
libangelscript.so.2.35.1:_ZN9asCParser7WarningERK9asCStringP6sToken
libangelscript.so.2.35.1:_ZN9asCParser8GetTokenEP6sToken
libangelscript.so.2.35.1:_ZN9asCParser8IsLambdaEv
libangelscript.so.2.35.1:_ZN9asCParser8ParseForEv
libangelscript.so.2.35.1:_ZN9asCParser8RewindToEPK6sToken
libangelscript.so.2.35.1:_ZN9asCParser9IsVarDeclEv
libangelscript.so.2.35.1:_ZN9asCParser9ParseCaseEv
libangelscript.so.2.35.1:_ZN9asCParser9ParseCastEv
libangelscript.so.2.35.1:_ZN9asCParser9ParseTypeEbbb
libangelscript.so.2.35.1:_ZN9asCParserC1EP10asCBuilder
libangelscript.so.2.35.1:_ZN9asCParserC2EP10asCBuilder
libangelscript.so.2.35.1:_ZN9asCParserD1Ev
libangelscript.so.2.35.1:_ZN9asCParserD2Ev
libangelscript.so.2.35.1:_ZN9asCReader10FindTypeIdEi
libangelscript.so.2.35.1:_ZN9asCReader10ReadStringEP9asCString
libangelscript.so.2.35.1:_ZN9asCReader11SanityCheckEij
libangelscript.so.2.35.1:_ZN9asCReader11SanityCheckEjj
libangelscript.so.2.35.1:_ZN9asCReader12FindFunctionEi
libangelscript.so.2.35.1:_ZN9asCReader12ReadByteCodeEP17asCScriptFunction
libangelscript.so.2.35.1:_ZN9asCReader12ReadDataTypeEP11asCDataType
libangelscript.so.2.35.1:_ZN9asCReader12ReadFunctionERbbbbPb
libangelscript.so.2.35.1:_ZN9asCReader12ReadTypeInfoEv
libangelscript.so.2.35.1:_ZN9asCReader13SListAdjuster11SetNextTypeEi
libangelscript.so.2.35.1:_ZN9asCReader13SListAdjuster12AdjustOffsetEi
libangelscript.so.2.35.1:_ZN9asCReader13SListAdjuster14AdjustAllocMemEv
libangelscript.so.2.35.1:_ZN9asCReader13SListAdjuster14SetRepeatCountEj
libangelscript.so.2.35.1:_ZN9asCReader13SListAdjusterC1EPS_PjP13asCObjectType
libangelscript.so.2.35.1:_ZN9asCReader13SListAdjusterC2EPS_PjP13asCObjectType
libangelscript.so.2.35.1:_ZN9asCReader14ReadEncodedIntEv
libangelscript.so.2.35.1:_ZN9asCReader15AdjustGetOffsetEiP17asCScriptFunctionj
libangelscript.so.2.35.1:_ZN9asCReader15ReadEncodedUIntEv
libangelscript.so.2.35.1:_ZN9asCReader15ReadUsedTypeIdsEv
libangelscript.so.2.35.1:_ZN9asCReader17GetCalledFunctionEP17asCScriptFunctionj
libangelscript.so.2.35.1:_ZN9asCReader17ReadEncodedUInt16Ev
libangelscript.so.2.35.1:_ZN9asCReader17ReadEncodedUInt64Ev
libangelscript.so.2.35.1:_ZN9asCReader17ReadUsedFunctionsEv
libangelscript.so.2.35.1:_ZN9asCReader17TranslateFunctionEP17asCScriptFunction
libangelscript.so.2.35.1:_ZN9asCReader18ReadGlobalPropertyEv
libangelscript.so.2.35.1:_ZN9asCReader18ReadObjectPropertyEP13asCObjectType
libangelscript.so.2.35.1:_ZN9asCReader19AdjustStackPositionEi
libangelscript.so.2.35.1:_ZN9asCReader19ReadTypeDeclarationEP11asCTypeInfoiPb
libangelscript.so.2.35.1:_ZN9asCReader19ReadUsedGlobalPropsEv
libangelscript.so.2.35.1:_ZN9asCReader19ReadUsedObjectPropsEv
libangelscript.so.2.35.1:_ZN9asCReader20CalculateStackNeededEP17asCScriptFunction
libangelscript.so.2.35.1:_ZN9asCReader20FindObjectPropOffsetEt
libangelscript.so.2.35.1:_ZN9asCReader21ReadFunctionSignatureEP17asCScriptFunctionPP13asCObjectType
libangelscript.so.2.35.1:_ZN9asCReader23ReadUsedStringConstantsEv
libangelscript.so.2.35.1:_ZN9asCReader24CalculateAdjustmentByPosEP17asCScriptFunction
libangelscript.so.2.35.1:_ZN9asCReader4ReadEPb
libangelscript.so.2.35.1:_ZN9asCReader5ErrorEPKc
libangelscript.so.2.35.1:_ZN9asCReader8FindTypeEi
libangelscript.so.2.35.1:_ZN9asCReader8ReadDataEPvj
libangelscript.so.2.35.1:_ZN9asCReader9ReadInnerEv
libangelscript.so.2.35.1:_ZN9asCReaderC1EP9asCModuleP15asIBinaryStreamP15asCScriptEngine
libangelscript.so.2.35.1:_ZN9asCReaderC2EP9asCModuleP15asIBinaryStreamP15asCScriptEngine
libangelscript.so.2.35.1:_ZN9asCString11ConcatenateEPKcm
libangelscript.so.2.35.1:_ZN9asCString17RecalculateLengthEv
libangelscript.so.2.35.1:_ZN9asCString6AssignEPKcm
libangelscript.so.2.35.1:_ZN9asCString6FormatEPKcz
libangelscript.so.2.35.1:_ZN9asCString8AllocateEmb
libangelscript.so.2.35.1:_ZN9asCString9AddressOfEv
libangelscript.so.2.35.1:_ZN9asCString9SetLengthEm
libangelscript.so.2.35.1:_ZN9asCStringC1EOS_
libangelscript.so.2.35.1:_ZN9asCStringC1EPKc
libangelscript.so.2.35.1:_ZN9asCStringC1EPKcm
libangelscript.so.2.35.1:_ZN9asCStringC1ERKS_
libangelscript.so.2.35.1:_ZN9asCStringC1Ec
libangelscript.so.2.35.1:_ZN9asCStringC1Ev
libangelscript.so.2.35.1:_ZN9asCStringC2EOS_
libangelscript.so.2.35.1:_ZN9asCStringC2EPKc
libangelscript.so.2.35.1:_ZN9asCStringC2EPKcm
libangelscript.so.2.35.1:_ZN9asCStringC2ERKS_
libangelscript.so.2.35.1:_ZN9asCStringC2Ec
libangelscript.so.2.35.1:_ZN9asCStringC2Ev
libangelscript.so.2.35.1:_ZN9asCStringD1Ev
libangelscript.so.2.35.1:_ZN9asCStringD2Ev
libangelscript.so.2.35.1:_ZN9asCStringaSEOS_
libangelscript.so.2.35.1:_ZN9asCStringaSEPKc
libangelscript.so.2.35.1:_ZN9asCStringaSERKS_
libangelscript.so.2.35.1:_ZN9asCStringaSEc
libangelscript.so.2.35.1:_ZN9asCStringixEm
libangelscript.so.2.35.1:_ZN9asCStringpLEPKc
libangelscript.so.2.35.1:_ZN9asCStringpLERKS_
libangelscript.so.2.35.1:_ZN9asCStringpLEc
libangelscript.so.2.35.1:_ZN9asCWriter11WriteStringEP9asCString
libangelscript.so.2.35.1:_ZN9asCWriter13FindTypeIdIdxEi
libangelscript.so.2.35.1:_ZN9asCWriter13SListAdjuster11SetNextTypeEi
libangelscript.so.2.35.1:_ZN9asCWriter13SListAdjuster12AdjustOffsetEiP13asCObjectType
libangelscript.so.2.35.1:_ZN9asCWriter13SListAdjuster14SetRepeatCountEj
libangelscript.so.2.35.1:_ZN9asCWriter13SListAdjusterC1EP13asCObjectType
libangelscript.so.2.35.1:_ZN9asCWriter13SListAdjusterC2EP13asCObjectType
libangelscript.so.2.35.1:_ZN9asCWriter13WriteByteCodeEP17asCScriptFunction
libangelscript.so.2.35.1:_ZN9asCWriter13WriteDataTypeEPK11asCDataType
libangelscript.so.2.35.1:_ZN9asCWriter13WriteFunctionEP17asCScriptFunction
libangelscript.so.2.35.1:_ZN9asCWriter13WriteTypeInfoEP11asCTypeInfo
libangelscript.so.2.35.1:_ZN9asCWriter15AdjustGetOffsetEiP17asCScriptFunctionj
libangelscript.so.2.35.1:_ZN9asCWriter15FindTypeInfoIdxEP11asCTypeInfo
libangelscript.so.2.35.1:_ZN9asCWriter16WriteUsedTypeIdsEv
libangelscript.so.2.35.1:_ZN9asCWriter17FindFunctionIndexEP17asCScriptFunction
libangelscript.so.2.35.1:_ZN9asCWriter17WriteEncodedInt64El
libangelscript.so.2.35.1:_ZN9asCWriter18WriteUsedFunctionsEv
libangelscript.so.2.35.1:_ZN9asCWriter19AdjustStackPositionEi
libangelscript.so.2.35.1:_ZN9asCWriter19FindObjectPropIndexEsiPj
libangelscript.so.2.35.1:_ZN9asCWriter19WriteGlobalPropertyEP17asCGlobalProperty
libangelscript.so.2.35.1:_ZN9asCWriter19WriteObjectPropertyEP17asCObjectProperty
libangelscript.so.2.35.1:_ZN9asCWriter20WriteTypeDeclarationEP11asCTypeInfoi
libangelscript.so.2.35.1:_ZN9asCWriter20WriteUsedGlobalPropsEv
libangelscript.so.2.35.1:_ZN9asCWriter20WriteUsedObjectPropsEv
libangelscript.so.2.35.1:_ZN9asCWriter22FindGlobalPropPtrIndexEPv
libangelscript.so.2.35.1:_ZN9asCWriter22WriteFunctionSignatureEP17asCScriptFunction
libangelscript.so.2.35.1:_ZN9asCWriter23FindStringConstantIndexEPv
libangelscript.so.2.35.1:_ZN9asCWriter24CalculateAdjustmentByPosEP17asCScriptFunction
libangelscript.so.2.35.1:_ZN9asCWriter24WriteUsedStringConstantsEv
libangelscript.so.2.35.1:_ZN9asCWriter5ErrorEPKc
libangelscript.so.2.35.1:_ZN9asCWriter5WriteEv
libangelscript.so.2.35.1:_ZN9asCWriter9WriteDataEPKvj
libangelscript.so.2.35.1:_ZN9asCWriterC1EP9asCModuleP15asIBinaryStreamP15asCScriptEngineb
libangelscript.so.2.35.1:_ZN9asCWriterC2EP9asCModuleP15asIBinaryStreamP15asCScriptEngineb
libangelscript.so.2.35.1:_ZNK10asCContext11GetUserDataEm
libangelscript.so.2.35.1:_ZNK10asCContext16GetCallstackSizeEv
libangelscript.so.2.35.1:_ZNK10asCContext6AddRefEv
libangelscript.so.2.35.1:_ZNK10asCContext7ReleaseEv
libangelscript.so.2.35.1:_ZNK10asCContext8GetStateEv
libangelscript.so.2.35.1:_ZNK10asCContext8IsNestedEPj
libangelscript.so.2.35.1:_ZNK10asCContext9GetEngineEv
libangelscript.so.2.35.1:_ZNK10asCGeneric11GetArgCountEv
libangelscript.so.2.35.1:_ZNK10asCGeneric11GetFunctionEv
libangelscript.so.2.35.1:_ZNK10asCGeneric12GetArgTypeIdEjPj
libangelscript.so.2.35.1:_ZNK10asCGeneric12GetAuxiliaryEv
libangelscript.so.2.35.1:_ZNK10asCGeneric15GetObjectTypeIdEv
libangelscript.so.2.35.1:_ZNK10asCGeneric15GetReturnTypeIdEPj
libangelscript.so.2.35.1:_ZNK10asCGeneric9GetEngineEv
libangelscript.so.2.35.1:_ZNK11asCDataType10GetSubTypeEj
libangelscript.so.2.35.1:_ZNK11asCDataType10IsEnumTypeEv
libangelscript.so.2.35.1:_ZNK11asCDataType10IsMathTypeEv
libangelscript.so.2.35.1:_ZNK11asCDataType10IsReadOnlyEv
libangelscript.so.2.35.1:_ZNK11asCDataType10IsTemplateEv
libangelscript.so.2.35.1:_ZNK11asCDataType11CanBeCopiedEv
libangelscript.so.2.35.1:_ZNK11asCDataType11IsArrayTypeEv
libangelscript.so.2.35.1:_ZNK11asCDataType11IsFloatTypeEv
libangelscript.so.2.35.1:_ZNK11asCDataType11IsInterfaceEv
libangelscript.so.2.35.1:_ZNK11asCDataType11IsPrimitiveEv
libangelscript.so.2.35.1:_ZNK11asCDataType12GetBehaviourEv
libangelscript.so.2.35.1:_ZNK11asCDataType12IsDoubleTypeEv
libangelscript.so.2.35.1:_ZNK11asCDataType12IsNullHandleEv
libangelscript.so.2.35.1:_ZNK11asCDataType13IsBooleanTypeEv
libangelscript.so.2.35.1:_ZNK11asCDataType13IsIntegerTypeEv
libangelscript.so.2.35.1:_ZNK11asCDataType13IsObjectConstEv
libangelscript.so.2.35.1:_ZNK11asCDataType14IsScriptObjectEv
libangelscript.so.2.35.1:_ZNK11asCDataType14IsUnsignedTypeEv
libangelscript.so.2.35.1:_ZNK11asCDataType14SupportHandlesEv
libangelscript.so.2.35.1:_ZNK11asCDataType15IsAbstractClassEv
libangelscript.so.2.35.1:_ZNK11asCDataType15IsHandleToConstEv
libangelscript.so.2.35.1:_ZNK11asCDataType16IsEqualExceptRefERKS_
libangelscript.so.2.35.1:_ZNK11asCDataType17CanBeInstantiatedEv
libangelscript.so.2.35.1:_ZNK11asCDataType18IsEqualExceptConstERKS_
libangelscript.so.2.35.1:_ZNK11asCDataType20GetSizeInMemoryBytesEv
libangelscript.so.2.35.1:_ZNK11asCDataType20GetSizeOnStackDWordsEv
libangelscript.so.2.35.1:_ZNK11asCDataType21GetSizeInMemoryDWordsEv
libangelscript.so.2.35.1:_ZNK11asCDataType24IsEqualExceptRefAndConstERKS_
libangelscript.so.2.35.1:_ZNK11asCDataType6FormatEP12asSNameSpaceb
libangelscript.so.2.35.1:_ZNK11asCDataType7IsValidEv
libangelscript.so.2.35.1:_ZNK11asCDataType8IsObjectEv
libangelscript.so.2.35.1:_ZNK11asCDataType9IsFuncdefEv
libangelscript.so.2.35.1:_ZNK11asCDataTypeeqERKS_
libangelscript.so.2.35.1:_ZNK11asCDataTypeneERKS_
libangelscript.so.2.35.1:_ZNK11asCEnumType17GetEnumValueCountEv
libangelscript.so.2.35.1:_ZNK11asCEnumType19GetEnumValueByIndexEjPi
libangelscript.so.2.35.1:_ZNK11asCTypeInfo11GetPropertyEjPPKcPiPbS4_S3_S4_PjS3_S4_
libangelscript.so.2.35.1:_ZNK11asCTypeInfo11GetUserDataEm
libangelscript.so.2.35.1:_ZNK11asCTypeInfo12GetNamespaceEv
libangelscript.so.2.35.1:_ZNK11asCTypeInfo13GetAccessMaskEv
libangelscript.so.2.35.1:_ZNK11asCTypeInfo14GetConfigGroupEv
libangelscript.so.2.35.1:_ZNK11asCTypeInfo6AddRefEv
libangelscript.so.2.35.1:_ZNK11asCTypeInfo7GetNameEv
libangelscript.so.2.35.1:_ZNK11asCTypeInfo7GetSizeEv
libangelscript.so.2.35.1:_ZNK11asCTypeInfo7ReleaseEv
libangelscript.so.2.35.1:_ZNK11asCTypeInfo8GetFlagsEv
libangelscript.so.2.35.1:_ZNK11asCTypeInfo8IsSharedEv
libangelscript.so.2.35.1:_ZNK11asCTypeInfo9GetEngineEv
libangelscript.so.2.35.1:_ZNK11asCTypeInfo9GetModuleEv
libangelscript.so.2.35.1:_ZNK11asCTypeInfo9GetTypeIdEv
libangelscript.so.2.35.1:_ZNK12asCExprValue14IsNullConstantEv
libangelscript.so.2.35.1:_ZNK12asCExprValue21IsUndefinedFuncHandleEv
libangelscript.so.2.35.1:_ZNK12asCExprValue6IsVoidEv
libangelscript.so.2.35.1:_ZNK12asCTokenizer10IsConstantEPKcmRmR10eTokenType
libangelscript.so.2.35.1:_ZNK12asCTokenizer10ParseTokenEPKcmRmR10eTokenType
libangelscript.so.2.35.1:_ZNK12asCTokenizer12IsIdentifierEPKcmRmR10eTokenType
libangelscript.so.2.35.1:_ZNK12asCTokenizer12IsWhiteSpaceEPKcmRmR10eTokenType
libangelscript.so.2.35.1:_ZNK12asCTokenizer14IsDigitInRadixEci
libangelscript.so.2.35.1:_ZNK12asCTokenizer8GetTokenEPKcmPmP13asETokenClass
libangelscript.so.2.35.1:_ZNK12asCTokenizer9IsCommentEPKcmRmR10eTokenType
libangelscript.so.2.35.1:_ZNK12asCTokenizer9IsKeyWordEPKcmRmR10eTokenType
libangelscript.so.2.35.1:_ZNK13asCObjectType10GetSubTypeEj
libangelscript.so.2.35.1:_ZNK13asCObjectType10ImplementsEPK11asITypeInfo
libangelscript.so.2.35.1:_ZNK13asCObjectType11DerivesFromEPK11asITypeInfo
libangelscript.so.2.35.1:_ZNK13asCObjectType11GetBaseTypeEv
libangelscript.so.2.35.1:_ZNK13asCObjectType11GetPropertyEjPPKcPiPbS4_S3_S4_PjS3_S4_
libangelscript.so.2.35.1:_ZNK13asCObjectType11IsInterfaceEv
libangelscript.so.2.35.1:_ZNK13asCObjectType12GetInterfaceEj
libangelscript.so.2.35.1:_ZNK13asCObjectType12GetSubTypeIdEj
libangelscript.so.2.35.1:_ZNK13asCObjectType14GetMethodCountEv
libangelscript.so.2.35.1:_ZNK13asCObjectType15GetChildFuncdefEj
libangelscript.so.2.35.1:_ZNK13asCObjectType15GetFactoryCountEv
libangelscript.so.2.35.1:_ZNK13asCObjectType15GetMethodByDeclEPKcb
libangelscript.so.2.35.1:_ZNK13asCObjectType15GetMethodByNameEPKcb
libangelscript.so.2.35.1:_ZNK13asCObjectType15GetSubTypeCountEv
libangelscript.so.2.35.1:_ZNK13asCObjectType16GetFactoryByDeclEPKc
libangelscript.so.2.35.1:_ZNK13asCObjectType16GetMethodByIndexEjb
libangelscript.so.2.35.1:_ZNK13asCObjectType16GetPropertyCountEv
libangelscript.so.2.35.1:_ZNK13asCObjectType17GetBehaviourCountEv
libangelscript.so.2.35.1:_ZNK13asCObjectType17GetFactoryByIndexEj
libangelscript.so.2.35.1:_ZNK13asCObjectType17GetInterfaceCountEv
libangelscript.so.2.35.1:_ZNK13asCObjectType19GetBehaviourByIndexEjP13asEBehaviours
libangelscript.so.2.35.1:_ZNK13asCObjectType20GetChildFuncdefCountEv
libangelscript.so.2.35.1:_ZNK13asCObjectType22GetPropertyDeclarationEjb
libangelscript.so.2.35.1:_ZNK14asCExprContext12IsGlobalFuncEv
libangelscript.so.2.35.1:_ZNK14asCExprContext13IsClassMethodEv
libangelscript.so.2.35.1:_ZNK14asCExprContext16IsVoidExpressionEv
libangelscript.so.2.35.1:_ZNK14asCExprContext19IsAnonymousInitListEv
libangelscript.so.2.35.1:_ZNK14asCExprContext8IsLambdaEv
libangelscript.so.2.35.1:_ZNK14asCFuncdefType13GetParentTypeEv
libangelscript.so.2.35.1:_ZNK14asCFuncdefType19GetFuncdefSignatureEv
libangelscript.so.2.35.1:_ZNK14asCSymbolTableI26sGlobalVariableDescriptionE6GetKeyEPKS0_R20asSNameSpaceNamePair
libangelscript.so.2.35.1:_ZNK14asCTypedefType16GetTypedefTypeIdEv
libangelscript.so.2.35.1:_ZNK15asCScriptEngine10ParseTokenEPKcmPj
libangelscript.so.2.35.1:_ZNK15asCScriptEngine11GetUserDataEm
libangelscript.so.2.35.1:_ZNK15asCScriptEngine12GetEnumCountEv
libangelscript.so.2.35.1:_ZNK15asCScriptEngine13FindNameSpaceEPKc
libangelscript.so.2.35.1:_ZNK15asCScriptEngine14GetEnumByIndexEj
libangelscript.so.2.35.1:_ZNK15asCScriptEngine14GetJITCompilerEv
libangelscript.so.2.35.1:_ZNK15asCScriptEngine14GetModuleCountEv
libangelscript.so.2.35.1:_ZNK15asCScriptEngine14IsTemplateTypeEPKc
libangelscript.so.2.35.1:_ZNK15asCScriptEngine15GetFuncdefCountEv
libangelscript.so.2.35.1:_ZNK15asCScriptEngine15GetFunctionByIdEi
libangelscript.so.2.35.1:_ZNK15asCScriptEngine15GetGCStatisticsEPjS0_S0_S0_S0_
libangelscript.so.2.35.1:_ZNK15asCScriptEngine15GetTypeIdByDeclEPKc
libangelscript.so.2.35.1:_ZNK15asCScriptEngine15GetTypeInfoByIdEi
libangelscript.so.2.35.1:_ZNK15asCScriptEngine15GetTypedefCountEv
libangelscript.so.2.35.1:_ZNK15asCScriptEngine16CallObjectMethodEPvP26asSSystemFunctionInterfaceP17asCScriptFunction
libangelscript.so.2.35.1:_ZNK15asCScriptEngine16CallObjectMethodEPvS0_P26asSSystemFunctionInterfaceP17asCScriptFunction
libangelscript.so.2.35.1:_ZNK15asCScriptEngine16CallObjectMethodEPvS0_i
libangelscript.so.2.35.1:_ZNK15asCScriptEngine16CallObjectMethodEPvi
libangelscript.so.2.35.1:_ZNK15asCScriptEngine16GetModuleByIndexEj
libangelscript.so.2.35.1:_ZNK15asCScriptEngine17GetEnginePropertyE13asEEngineProp
libangelscript.so.2.35.1:_ZNK15asCScriptEngine17GetFuncdefByIndexEj
libangelscript.so.2.35.1:_ZNK15asCScriptEngine17GetRegisteredTypeERK9asCStringP12asSNameSpace
libangelscript.so.2.35.1:_ZNK15asCScriptEngine17GetScriptFunctionEi
libangelscript.so.2.35.1:_ZNK15asCScriptEngine17GetTypeInfoByDeclEPKc
libangelscript.so.2.35.1:_ZNK15asCScriptEngine17GetTypeInfoByNameEPKc
libangelscript.so.2.35.1:_ZNK15asCScriptEngine17GetTypedefByIndexEj
libangelscript.so.2.35.1:_ZNK15asCScriptEngine18CallGlobalFunctionEPvS0_P26asSSystemFunctionInterfaceP17asCScriptFunction
libangelscript.so.2.35.1:_ZNK15asCScriptEngine18GetObjectTypeCountEv
libangelscript.so.2.35.1:_ZNK15asCScriptEngine18GetParentNameSpaceEP12asSNameSpace
libangelscript.so.2.35.1:_ZNK15asCScriptEngine18GetTypeDeclarationEib
libangelscript.so.2.35.1:_ZNK15asCScriptEngine19GetDefaultNamespaceEv
libangelscript.so.2.35.1:_ZNK15asCScriptEngine20GetObjectTypeByIndexEj
libangelscript.so.2.35.1:_ZNK15asCScriptEngine21GetDataTypeFromTypeIdEi
libangelscript.so.2.35.1:_ZNK15asCScriptEngine21GetDefaultArrayTypeIdEv
libangelscript.so.2.35.1:_ZNK15asCScriptEngine21GetTypeIdFromDataTypeERK11asCDataType
libangelscript.so.2.35.1:_ZNK15asCScriptEngine22CallObjectMethodRetIntEPvi
libangelscript.so.2.35.1:_ZNK15asCScriptEngine22CallObjectMethodRetPtrEPvi
libangelscript.so.2.35.1:_ZNK15asCScriptEngine22CallObjectMethodRetPtrEPviP17asCScriptFunction
libangelscript.so.2.35.1:_ZNK15asCScriptEngine22GetGlobalFunctionCountEv
libangelscript.so.2.35.1:_ZNK15asCScriptEngine22GetGlobalPropertyCountEv
libangelscript.so.2.35.1:_ZNK15asCScriptEngine22GetSizeOfPrimitiveTypeEi
libangelscript.so.2.35.1:_ZNK15asCScriptEngine23CallObjectMethodRetBoolEPvi
libangelscript.so.2.35.1:_ZNK15asCScriptEngine23GetGlobalFunctionByDeclEPKc
libangelscript.so.2.35.1:_ZNK15asCScriptEngine23GetObjectTypeFromTypeIdEi
libangelscript.so.2.35.1:_ZNK15asCScriptEngine24CallGlobalFunctionRetPtrEP26asSSystemFunctionInterfaceP17asCScriptFunction
libangelscript.so.2.35.1:_ZNK15asCScriptEngine24CallGlobalFunctionRetPtrEP26asSSystemFunctionInterfaceP17asCScriptFunctionPv
libangelscript.so.2.35.1:_ZNK15asCScriptEngine24CallGlobalFunctionRetPtrEi
libangelscript.so.2.35.1:_ZNK15asCScriptEngine24CallGlobalFunctionRetPtrEiPv
libangelscript.so.2.35.1:_ZNK15asCScriptEngine24GetGlobalFunctionByIndexEj
libangelscript.so.2.35.1:_ZNK15asCScriptEngine24GetGlobalPropertyByIndexEjPPKcS2_PiPbS2_PPvPj
libangelscript.so.2.35.1:_ZNK15asCScriptEngine25CallGlobalFunctionRetBoolEPvS0_P26asSSystemFunctionInterfaceP17asCScriptFunction
libangelscript.so.2.35.1:_ZNK15asCScriptEngine25DetermineNameAndNamespaceEPKcP12asSNameSpaceR9asCStringRS3_
libangelscript.so.2.35.1:_ZNK15asCScriptEngine25FindConfigGroupForFuncDefEPK14asCFuncdefType
libangelscript.so.2.35.1:_ZNK15asCScriptEngine26FindConfigGroupForFunctionEi
libangelscript.so.2.35.1:_ZNK15asCScriptEngine26FindConfigGroupForTypeInfoEPK11asCTypeInfo
libangelscript.so.2.35.1:_ZNK15asCScriptEngine27FindConfigGroupForGlobalVarEi
libangelscript.so.2.35.1:_ZNK15asCScriptEngine28GetGlobalPropertyIndexByDeclEPKc
libangelscript.so.2.35.1:_ZNK15asCScriptEngine28GetGlobalPropertyIndexByNameEPKc
libangelscript.so.2.35.1:_ZNK15asCScriptEngine28GetStringFactoryReturnTypeIdEPj
libangelscript.so.2.35.1:_ZNK15asCScriptEngine28GetWeakRefFlagOfScriptObjectEPvPK11asITypeInfo
libangelscript.so.2.35.1:_ZNK15asCScriptEngine6AddRefEv
libangelscript.so.2.35.1:_ZNK15asCScriptEngine7ReleaseEv
libangelscript.so.2.35.1:_ZNK15asCScriptEngine8CallFreeEPv
libangelscript.so.2.35.1:_ZNK15asCScriptEngine9CallAllocEPK13asCObjectType
libangelscript.so.2.35.1:_ZNK15asCScriptObject11GetUserDataEm
libangelscript.so.2.35.1:_ZNK15asCScriptObject13GetObjectTypeEv
libangelscript.so.2.35.1:_ZNK15asCScriptObject14GetWeakRefFlagEv
libangelscript.so.2.35.1:_ZNK15asCScriptObject15GetPropertyNameEj
libangelscript.so.2.35.1:_ZNK15asCScriptObject16GetPropertyCountEv
libangelscript.so.2.35.1:_ZNK15asCScriptObject17GetPropertyTypeIdEj
libangelscript.so.2.35.1:_ZNK15asCScriptObject6AddRefEv
libangelscript.so.2.35.1:_ZNK15asCScriptObject7ReleaseEv
libangelscript.so.2.35.1:_ZNK15asCScriptObject9GetEngineEv
libangelscript.so.2.35.1:_ZNK15asCScriptObject9GetTypeIdEv
libangelscript.so.2.35.1:_ZNK16asCStringPointer9AddressOfEv
libangelscript.so.2.35.1:_ZNK16asCStringPointer9GetLengthEv
libangelscript.so.2.35.1:_ZNK16asCStringPointereqERKS_
libangelscript.so.2.35.1:_ZNK16asCStringPointerltERKS_
libangelscript.so.2.35.1:_ZNK17asCGlobalProperty20GetRegisteredAddressEv
libangelscript.so.2.35.1:_ZNK17asCScriptFunction10GetVarDeclEjb
libangelscript.so.2.35.1:_ZNK17asCScriptFunction10IsExplicitEv
libangelscript.so.2.35.1:_ZNK17asCScriptFunction10IsOverrideEv
libangelscript.so.2.35.1:_ZNK17asCScriptFunction10IsPropertyEv
libangelscript.so.2.35.1:_ZNK17asCScriptFunction10IsReadOnlyEv
libangelscript.so.2.35.1:_ZNK17asCScriptFunction11GetFuncTypeEv
libangelscript.so.2.35.1:_ZNK17asCScriptFunction11GetUserDataEm
libangelscript.so.2.35.1:_ZNK17asCScriptFunction11GetVarCountEv
libangelscript.so.2.35.1:_ZNK17asCScriptFunction11IsProtectedEv
libangelscript.so.2.35.1:_ZNK17asCScriptFunction12GetAuxiliaryEv
libangelscript.so.2.35.1:_ZNK17asCScriptFunction12GetNamespaceEv
libangelscript.so.2.35.1:_ZNK17asCScriptFunction13GetAccessMaskEv
libangelscript.so.2.35.1:_ZNK17asCScriptFunction13GetModuleNameEv
libangelscript.so.2.35.1:_ZNK17asCScriptFunction13GetObjectNameEv
libangelscript.so.2.35.1:_ZNK17asCScriptFunction13GetObjectTypeEv
libangelscript.so.2.35.1:_ZNK17asCScriptFunction13GetParamCountEv
libangelscript.so.2.35.1:_ZNK17asCScriptFunction14GetConfigGroupEv
libangelscript.so.2.35.1:_ZNK17asCScriptFunction14GetDeclarationEbbb
libangelscript.so.2.35.1:_ZNK17asCScriptFunction15GetReturnTypeIdEPj
libangelscript.so.2.35.1:_ZNK17asCScriptFunction16IsSignatureEqualEPKS_
libangelscript.so.2.35.1:_ZNK17asCScriptFunction17DoesReturnOnStackEv
libangelscript.so.2.35.1:_ZNK17asCScriptFunction17GetDeclarationStrEbbb
libangelscript.so.2.35.1:_ZNK17asCScriptFunction17GetDelegateObjectEv
libangelscript.so.2.35.1:_ZNK17asCScriptFunction19GetDelegateFunctionEv
libangelscript.so.2.35.1:_ZNK17asCScriptFunction20FindNextLineWithCodeEi
libangelscript.so.2.35.1:_ZNK17asCScriptFunction20GetScriptSectionNameEv
libangelscript.so.2.35.1:_ZNK17asCScriptFunction21GetDelegateObjectTypeEv
libangelscript.so.2.35.1:_ZNK17asCScriptFunction22IsCompatibleWithTypeIdEi
libangelscript.so.2.35.1:_ZNK17asCScriptFunction26IsSignatureExceptNameEqualEPKS_
libangelscript.so.2.35.1:_ZNK17asCScriptFunction26IsSignatureExceptNameEqualERK11asCDataTypeRK8asCArrayIS0_ERKS3_I16asETypeModifiersEPK13asCObjectTypeb
libangelscript.so.2.35.1:_ZNK17asCScriptFunction39IsSignatureExceptNameAndObjectTypeEqualEPKS_
libangelscript.so.2.35.1:_ZNK17asCScriptFunction39IsSignatureExceptNameAndReturnTypeEqualEPKS_
libangelscript.so.2.35.1:_ZNK17asCScriptFunction39IsSignatureExceptNameAndReturnTypeEqualERK8asCArrayI11asCDataTypeERKS0_I16asETypeModifiersEPK13asCObjectTypeb
libangelscript.so.2.35.1:_ZNK17asCScriptFunction5GetIdEv
libangelscript.so.2.35.1:_ZNK17asCScriptFunction6AddRefEv
libangelscript.so.2.35.1:_ZNK17asCScriptFunction6GetVarEjPPKcPi
libangelscript.so.2.35.1:_ZNK17asCScriptFunction7GetNameEv
libangelscript.so.2.35.1:_ZNK17asCScriptFunction7IsFinalEv
libangelscript.so.2.35.1:_ZNK17asCScriptFunction7ReleaseEv
libangelscript.so.2.35.1:_ZNK17asCScriptFunction8GetParamEjPiPjPPKcS4_
libangelscript.so.2.35.1:_ZNK17asCScriptFunction8IsSharedEv
libangelscript.so.2.35.1:_ZNK17asCScriptFunction9GetEngineEv
libangelscript.so.2.35.1:_ZNK17asCScriptFunction9GetModuleEv
libangelscript.so.2.35.1:_ZNK17asCScriptFunction9GetTypeIdEv
libangelscript.so.2.35.1:_ZNK17asCScriptFunction9IsFactoryEv
libangelscript.so.2.35.1:_ZNK17asCScriptFunction9IsPrivateEv
libangelscript.so.2.35.1:_ZNK19asCGarbageCollector13GetStatisticsEPjS0_S0_S0_S0_
libangelscript.so.2.35.1:_ZNK21asCLockableSharedBool3GetEv
libangelscript.so.2.35.1:_ZNK21asCLockableSharedBool4LockEv
libangelscript.so.2.35.1:_ZNK21asCLockableSharedBool6AddRefEv
libangelscript.so.2.35.1:_ZNK21asCLockableSharedBool6UnlockEv
libangelscript.so.2.35.1:_ZNK21asCLockableSharedBool7ReleaseEv
libangelscript.so.2.35.1:_ZNK9asCAtomic3getEv
libangelscript.so.2.35.1:_ZNK9asCModule11GetUserDataEm
libangelscript.so.2.35.1:_ZNK9asCModule12GetEnumCountEv
libangelscript.so.2.35.1:_ZNK9asCModule12GetGlobalVarEjPPKcS2_PiPb
libangelscript.so.2.35.1:_ZNK9asCModule12SaveByteCodeEP15asIBinaryStreamb
libangelscript.so.2.35.1:_ZNK9asCModule13GetObjectTypeEPKcP12asSNameSpace
libangelscript.so.2.35.1:_ZNK9asCModule14GetEnumByIndexEj
libangelscript.so.2.35.1:_ZNK9asCModule15GetTypeIdByDeclEPKc
libangelscript.so.2.35.1:_ZNK9asCModule15GetTypedefCountEv
libangelscript.so.2.35.1:_ZNK9asCModule16GetFunctionCountEv
libangelscript.so.2.35.1:_ZNK9asCModule17GetFunctionByDeclEPKc
libangelscript.so.2.35.1:_ZNK9asCModule17GetFunctionByNameEPKc
libangelscript.so.2.35.1:_ZNK9asCModule17GetGlobalVarCountEv
libangelscript.so.2.35.1:_ZNK9asCModule17GetTypeInfoByDeclEPKc
libangelscript.so.2.35.1:_ZNK9asCModule17GetTypeInfoByNameEPKc
libangelscript.so.2.35.1:_ZNK9asCModule17GetTypedefByIndexEj
libangelscript.so.2.35.1:_ZNK9asCModule18GetFunctionByIndexEj
libangelscript.so.2.35.1:_ZNK9asCModule18GetObjectTypeCountEv
libangelscript.so.2.35.1:_ZNK9asCModule19GetDefaultNamespaceEv
libangelscript.so.2.35.1:_ZNK9asCModule19GetImportedFunctionEi
libangelscript.so.2.35.1:_ZNK9asCModule20GetObjectTypeByIndexEj
libangelscript.so.2.35.1:_ZNK9asCModule23GetGlobalVarDeclarationEjb
libangelscript.so.2.35.1:_ZNK9asCModule23GetGlobalVarIndexByDeclEPKc
libangelscript.so.2.35.1:_ZNK9asCModule23GetGlobalVarIndexByNameEPKc
libangelscript.so.2.35.1:_ZNK9asCModule24GetImportedFunctionCountEv
libangelscript.so.2.35.1:_ZNK9asCModule30GetImportedFunctionDeclarationEj
libangelscript.so.2.35.1:_ZNK9asCModule30GetImportedFunctionIndexByDeclEPKc
libangelscript.so.2.35.1:_ZNK9asCModule31GetImportedFunctionSourceModuleEj
libangelscript.so.2.35.1:_ZNK9asCModule7GetNameEv
libangelscript.so.2.35.1:_ZNK9asCModule7GetTypeERK9asCStringP12asSNameSpace
libangelscript.so.2.35.1:_ZNK9asCModule7IsEmptyEv
libangelscript.so.2.35.1:_ZNK9asCModule9GetEngineEv
libangelscript.so.2.35.1:_ZNK9asCString7CompareEPKc
libangelscript.so.2.35.1:_ZNK9asCString7CompareEPKcm
libangelscript.so.2.35.1:_ZNK9asCString7CompareERKS_
libangelscript.so.2.35.1:_ZNK9asCString8FindLastEPKcPi
libangelscript.so.2.35.1:_ZNK9asCString9AddressOfEv
libangelscript.so.2.35.1:_ZNK9asCString9GetLengthEv
libangelscript.so.2.35.1:_ZNK9asCString9SubStringEmm
libangelscript.so.2.35.1:_ZNK9asCStringixEm
libangelscript.so.2.35.1:_ZeqPKcRK9asCString
libangelscript.so.2.35.1:_ZeqRK9asCStringPKc
libangelscript.so.2.35.1:_ZeqRK9asCStringS1_
libangelscript.so.2.35.1:_ZltRK9asCStringS1_
libangelscript.so.2.35.1:_ZnePKcRK9asCString
libangelscript.so.2.35.1:_ZneRK9asCStringPKc
libangelscript.so.2.35.1:_ZneRK9asCStringS1_
libangelscript.so.2.35.1:_ZplPKcRK9asCString
libangelscript.so.2.35.1:_ZplRK9asCStringPKc
libangelscript.so.2.35.1:_ZplRK9asCStringS1_
libangelscript.so.2.35.1:asAcquireExclusiveLock
libangelscript.so.2.35.1:asAcquireSharedLock
libangelscript.so.2.35.1:asAllocMem
libangelscript.so.2.35.1:asAtomicDec
libangelscript.so.2.35.1:asAtomicInc
libangelscript.so.2.35.1:asCreateLockableSharedBool
libangelscript.so.2.35.1:asCreateScriptEngine
libangelscript.so.2.35.1:asFreeMem
libangelscript.so.2.35.1:asGetActiveContext
libangelscript.so.2.35.1:asGetLibraryOptions
libangelscript.so.2.35.1:asGetLibraryVersion
libangelscript.so.2.35.1:asGetThreadManager
libangelscript.so.2.35.1:asPrepareMultithread
libangelscript.so.2.35.1:asReleaseExclusiveLock
libangelscript.so.2.35.1:asReleaseSharedLock
libangelscript.so.2.35.1:asResetGlobalMemoryFunctions
libangelscript.so.2.35.1:asSetGlobalMemoryFunctions
libangelscript.so.2.35.1:asThreadCleanup
libangelscript.so.2.35.1:asUnprepareMultithread
libsquish.so.0.0:_ZN6squish10ClusterFit17ConstructOrderingERKNS_4Vec3Ei
libsquish.so.0.0:_ZN6squish10ClusterFit9Compress3EPv
libsquish.so.0.0:_ZN6squish10ClusterFit9Compress4EPv
libsquish.so.0.0:_ZN6squish10ClusterFitC1EPKNS_9ColourSetEiPf
libsquish.so.0.0:_ZN6squish10ClusterFitC2EPKNS_9ColourSetEiPf
libsquish.so.0.0:_ZN6squish10ComputeMSEEPKhiiS1_iRdS2_
libsquish.so.0.0:_ZN6squish10ComputeMSEEPKhiiiS1_iRdS2_
libsquish.so.0.0:_ZN6squish10DecompressEPhPKvi
libsquish.so.0.0:_ZN6squish13CompressImageEPKhiiPviPf
libsquish.so.0.0:_ZN6squish13CompressImageEPKhiiiPviPf
libsquish.so.0.0:_ZN6squish14CompressMaskedEPKhiPviPf
libsquish.so.0.0:_ZN6squish15DecompressImageEPhiiPKvi
libsquish.so.0.0:_ZN6squish15DecompressImageEPhiiiPKvi
libsquish.so.0.0:_ZN6squish15SingleColourFit16ComputeEndPointsEPKPKNS_18SingleColourLookupE
libsquish.so.0.0:_ZN6squish15SingleColourFit9Compress3EPv
libsquish.so.0.0:_ZN6squish15SingleColourFit9Compress4EPv
libsquish.so.0.0:_ZN6squish15SingleColourFitC1EPKNS_9ColourSetEi
libsquish.so.0.0:_ZN6squish15SingleColourFitC2EPKNS_9ColourSetEi
libsquish.so.0.0:_ZN6squish16DecompressColourEPhPKvb
libsquish.so.0.0:_ZN6squish17CompressAlphaDxt3EPKhiPv
libsquish.so.0.0:_ZN6squish17CompressAlphaDxt5EPKhiPv
libsquish.so.0.0:_ZN6squish17WriteColourBlock3ERKNS_4Vec3ES2_PKhPv
libsquish.so.0.0:_ZN6squish17WriteColourBlock4ERKNS_4Vec3ES2_PKhPv
libsquish.so.0.0:_ZN6squish19DecompressAlphaDxt3EPhPKv
libsquish.so.0.0:_ZN6squish19DecompressAlphaDxt5EPhPKv
libsquish.so.0.0:_ZN6squish22GetStorageRequirementsEiii
libsquish.so.0.0:_ZN6squish25ComputePrincipleComponentERKNS_6Sym3x3E
libsquish.so.0.0:_ZN6squish25ComputeWeightedCovarianceEiPKNS_4Vec3EPKf
libsquish.so.0.0:_ZN6squish8CopyRGBAEPKhPhi
libsquish.so.0.0:_ZN6squish8RangeFit9Compress3EPv
libsquish.so.0.0:_ZN6squish8RangeFit9Compress4EPv
libsquish.so.0.0:_ZN6squish8RangeFitC1EPKNS_9ColourSetEiPf
libsquish.so.0.0:_ZN6squish8RangeFitC2EPKNS_9ColourSetEiPf
libsquish.so.0.0:_ZN6squish9ColourFit8CompressEPv
libsquish.so.0.0:_ZN6squish9ColourFitC1EPKNS_9ColourSetEi
libsquish.so.0.0:_ZN6squish9ColourFitC2EPKNS_9ColourSetEi
libsquish.so.0.0:_ZN6squish9ColourFitD0Ev
libsquish.so.0.0:_ZN6squish9ColourFitD1Ev
libsquish.so.0.0:_ZN6squish9ColourFitD2Ev
libsquish.so.0.0:_ZN6squish9ColourSetC1EPKhii
libsquish.so.0.0:_ZN6squish9ColourSetC2EPKhii
libsquish.so.0.0:_ZNK6squish9ColourSet12RemapIndicesEPKhPh
